
BrutraumsteuerungCPP.elf:     file format elf32-avr

Sections:
Idx Name          Size      VMA       LMA       File off  Algn
  0 .text         00003146  00000000  00000000  000000b4  2**1
                  CONTENTS, ALLOC, LOAD, READONLY, CODE
  1 .data         000004ec  00800060  00003146  000031fa  2**0
                  CONTENTS, ALLOC, LOAD, DATA
  2 .bss          000000f7  0080054c  0080054c  000036e6  2**0
                  ALLOC
  3 .eeprom       00000028  00810000  00810000  000036e6  2**0
                  CONTENTS, ALLOC, LOAD, DATA
  4 .comment      00000030  00000000  00000000  0000370e  2**0
                  CONTENTS, READONLY
  5 .note.gnu.avr.deviceinfo 0000003c  00000000  00000000  00003740  2**2
                  CONTENTS, READONLY
  6 .debug_aranges 00000340  00000000  00000000  00003780  2**3
                  CONTENTS, READONLY, DEBUGGING
  7 .debug_info   0000588a  00000000  00000000  00003ac0  2**0
                  CONTENTS, READONLY, DEBUGGING
  8 .debug_abbrev 000013f6  00000000  00000000  0000934a  2**0
                  CONTENTS, READONLY, DEBUGGING
  9 .debug_line   00002b58  00000000  00000000  0000a740  2**0
                  CONTENTS, READONLY, DEBUGGING
 10 .debug_frame  00000804  00000000  00000000  0000d298  2**2
                  CONTENTS, READONLY, DEBUGGING
 11 .debug_str    00001885  00000000  00000000  0000da9c  2**0
                  CONTENTS, READONLY, DEBUGGING
 12 .debug_loc    0000343a  00000000  00000000  0000f321  2**0
                  CONTENTS, READONLY, DEBUGGING
 13 .debug_ranges 00000240  00000000  00000000  0001275b  2**0
                  CONTENTS, READONLY, DEBUGGING

Disassembly of section .text:

00000000 <__vectors>:
       0:	0c 94 b6 00 	jmp	0x16c	; 0x16c <__ctors_end>
       4:	0c 94 d3 00 	jmp	0x1a6	; 0x1a6 <__bad_interrupt>
       8:	0c 94 d3 00 	jmp	0x1a6	; 0x1a6 <__bad_interrupt>
       c:	0c 94 d3 00 	jmp	0x1a6	; 0x1a6 <__bad_interrupt>
      10:	0c 94 d3 00 	jmp	0x1a6	; 0x1a6 <__bad_interrupt>
      14:	0c 94 d3 00 	jmp	0x1a6	; 0x1a6 <__bad_interrupt>
      18:	0c 94 d3 00 	jmp	0x1a6	; 0x1a6 <__bad_interrupt>
      1c:	0c 94 d3 00 	jmp	0x1a6	; 0x1a6 <__bad_interrupt>
      20:	0c 94 d3 00 	jmp	0x1a6	; 0x1a6 <__bad_interrupt>
      24:	0c 94 d3 00 	jmp	0x1a6	; 0x1a6 <__bad_interrupt>
      28:	0c 94 32 06 	jmp	0xc64	; 0xc64 <__vector_10>
      2c:	0c 94 d3 00 	jmp	0x1a6	; 0x1a6 <__bad_interrupt>
      30:	0c 94 d3 00 	jmp	0x1a6	; 0x1a6 <__bad_interrupt>
      34:	0c 94 d3 00 	jmp	0x1a6	; 0x1a6 <__bad_interrupt>
      38:	0c 94 d3 00 	jmp	0x1a6	; 0x1a6 <__bad_interrupt>
      3c:	0c 94 d3 00 	jmp	0x1a6	; 0x1a6 <__bad_interrupt>
      40:	0c 94 d3 00 	jmp	0x1a6	; 0x1a6 <__bad_interrupt>
      44:	0c 94 d3 00 	jmp	0x1a6	; 0x1a6 <__bad_interrupt>
      48:	0c 94 d3 00 	jmp	0x1a6	; 0x1a6 <__bad_interrupt>
      4c:	0c 94 d3 00 	jmp	0x1a6	; 0x1a6 <__bad_interrupt>
      50:	0c 94 d3 00 	jmp	0x1a6	; 0x1a6 <__bad_interrupt>
      54:	03 0c       	add	r0, r3
      56:	f2 0c       	add	r15, r2
      58:	ff 0c       	add	r15, r15
      5a:	19 0d       	add	r17, r9
      5c:	26 0d       	add	r18, r6
      5e:	33 0d       	add	r19, r3
      60:	4d 0d       	add	r20, r13
      62:	5a 0d       	add	r21, r10
      64:	0c 0d       	add	r16, r12
      66:	40 0d       	add	r20, r0
      68:	81 0d       	add	r24, r1
      6a:	8e 0d       	add	r24, r14
      6c:	9b 0d       	add	r25, r11
      6e:	a8 0d       	add	r26, r8
      70:	b5 0d       	add	r27, r5
      72:	c2 0d       	add	r28, r2
      74:	cf 0d       	add	r28, r15
      76:	dc 0d       	add	r29, r12
      78:	e9 0d       	add	r30, r9
      7a:	f6 0d       	add	r31, r6
      7c:	1d 0e       	add	r1, r29
      7e:	2a 0e       	add	r2, r26
      80:	03 0e       	add	r0, r19
      82:	10 0e       	add	r1, r16
      84:	67 0d       	add	r22, r7
      86:	74 0d       	add	r23, r4
      88:	37 0e       	add	r3, r23
      8a:	44 0e       	add	r4, r20
      8c:	51 0e       	add	r5, r17
      8e:	5e 0e       	add	r5, r30
      90:	6b 0e       	add	r6, r27
      92:	78 0e       	add	r7, r24
      94:	85 0e       	add	r8, r21
      96:	4f 0c       	add	r4, r15
      98:	13 0c       	add	r1, r3
      9a:	27 0c       	add	r2, r7
      9c:	1d 0c       	add	r1, r13
      9e:	3b 0c       	add	r3, r11
      a0:	45 0c       	add	r4, r5
      a2:	31 0c       	add	r3, r1
      a4:	c6 0c       	add	r12, r6
      a6:	8a 0c       	add	r8, r10
      a8:	9e 0c       	add	r9, r14
      aa:	94 0c       	add	r9, r4
      ac:	b2 0c       	add	r11, r2
      ae:	bc 0c       	add	r11, r12
      b0:	a8 0c       	add	r10, r8
      b2:	91 0e       	add	r9, r17
      b4:	98 0e       	add	r9, r24
      b6:	ad 0e       	add	r10, r29
      b8:	b4 0e       	add	r11, r20
      ba:	9f 0e       	add	r9, r31
      bc:	a6 0e       	add	r10, r22
      be:	bb 0e       	add	r11, r27
      c0:	c2 0e       	add	r12, r18
      c2:	d7 0e       	add	r13, r23
      c4:	de 0e       	add	r13, r30
      c6:	e5 0e       	add	r14, r21
      c8:	ec 0e       	add	r14, r28
      ca:	c9 0e       	add	r12, r25
      cc:	d0 0e       	add	r13, r16
      ce:	f3 0e       	add	r15, r19
      d0:	fa 0e       	add	r15, r26
      d2:	01 0f       	add	r16, r17
      d4:	08 0f       	add	r16, r24
      d6:	0f 0f       	add	r16, r31
      d8:	16 0f       	add	r17, r22
      da:	6b 0f       	add	r22, r27
      dc:	72 0f       	add	r23, r18
      de:	87 0f       	add	r24, r23
      e0:	90 0f       	add	r25, r16
      e2:	99 0f       	add	r25, r25
      e4:	a2 0f       	add	r26, r18
      e6:	b4 0f       	add	r27, r20
      e8:	c6 0f       	add	r28, r22
      ea:	cf 0f       	add	r28, r31
      ec:	d8 0f       	add	r29, r24
      ee:	bd 0f       	add	r27, r29
      f0:	ab 0f       	add	r26, r27
      f2:	5a 10       	cpse	r5, r10
      f4:	ff 0f       	add	r31, r31
      f6:	0b 10       	cpse	r0, r11
      f8:	6e 10       	cpse	r6, r14
      fa:	e1 0f       	add	r30, r17
      fc:	f0 0f       	add	r31, r16
      fe:	79 10       	cpse	r7, r9
     100:	97 10       	cpse	r9, r7
     102:	24 10       	cpse	r2, r4
     104:	24 10       	cpse	r2, r4
     106:	2a 10       	cpse	r2, r10
     108:	2a 10       	cpse	r2, r10
     10a:	30 10       	cpse	r3, r0
     10c:	30 10       	cpse	r3, r0
     10e:	36 10       	cpse	r3, r6
     110:	36 10       	cpse	r3, r6
     112:	42 10       	cpse	r4, r2
     114:	42 10       	cpse	r4, r2
     116:	48 10       	cpse	r4, r8
     118:	48 10       	cpse	r4, r8
     11a:	3c 10       	cpse	r3, r12
     11c:	3c 10       	cpse	r3, r12
     11e:	4e 10       	cpse	r4, r14
     120:	4e 10       	cpse	r4, r14
     122:	4e 10       	cpse	r4, r14
     124:	54 10       	cpse	r5, r4
     126:	54 10       	cpse	r5, r4
     128:	54 10       	cpse	r5, r4
     12a:	ce 10       	cpse	r12, r14
     12c:	db 10       	cpse	r13, r11
     12e:	ea 10       	cpse	r14, r10
     130:	44 11       	cpse	r20, r4
     132:	08 11       	cpse	r16, r8
     134:	17 11       	cpse	r17, r7
     136:	26 11       	cpse	r18, r6
     138:	53 11       	cpse	r21, r3
     13a:	f9 10       	cpse	r15, r9
     13c:	35 11       	cpse	r19, r5
     13e:	80 11       	cpse	r24, r0
     140:	8f 11       	cpse	r24, r15
     142:	a2 11       	cpse	r26, r2
     144:	b5 11       	cpse	r27, r5
     146:	c8 11       	cpse	r28, r8
     148:	db 11       	cpse	r29, r11
     14a:	4d 12       	cpse	r4, r29
     14c:	60 12       	cpse	r6, r16
     14e:	ee 11       	cpse	r30, r14
     150:	01 12       	cpse	r0, r17
     152:	3a 12       	cpse	r3, r26
     154:	73 12       	cpse	r7, r19
     156:	14 12       	cpse	r1, r20
     158:	27 12       	cpse	r2, r23
     15a:	62 11       	cpse	r22, r2
     15c:	71 11       	cpse	r23, r1
     15e:	86 12       	cpse	r8, r22
     160:	99 12       	cpse	r9, r25
     162:	ac 12       	cpse	r10, r28
     164:	bf 12       	cpse	r11, r31
     166:	d2 12       	cpse	r13, r18
     168:	e5 12       	cpse	r14, r21
     16a:	f8 12       	cpse	r15, r24

0000016c <__ctors_end>:
     16c:	11 24       	eor	r1, r1
     16e:	1f be       	out	0x3f, r1	; 63
     170:	cf e5       	ldi	r28, 0x5F	; 95
     172:	d8 e0       	ldi	r29, 0x08	; 8
     174:	de bf       	out	0x3e, r29	; 62
     176:	cd bf       	out	0x3d, r28	; 61

00000178 <__do_copy_data>:
     178:	15 e0       	ldi	r17, 0x05	; 5
     17a:	a0 e6       	ldi	r26, 0x60	; 96
     17c:	b0 e0       	ldi	r27, 0x00	; 0
     17e:	e6 e4       	ldi	r30, 0x46	; 70
     180:	f1 e3       	ldi	r31, 0x31	; 49
     182:	02 c0       	rjmp	.+4      	; 0x188 <__do_copy_data+0x10>
     184:	05 90       	lpm	r0, Z+
     186:	0d 92       	st	X+, r0
     188:	ac 34       	cpi	r26, 0x4C	; 76
     18a:	b1 07       	cpc	r27, r17
     18c:	d9 f7       	brne	.-10     	; 0x184 <__do_copy_data+0xc>

0000018e <__do_clear_bss>:
     18e:	26 e0       	ldi	r18, 0x06	; 6
     190:	ac e4       	ldi	r26, 0x4C	; 76
     192:	b5 e0       	ldi	r27, 0x05	; 5
     194:	01 c0       	rjmp	.+2      	; 0x198 <.do_clear_bss_start>

00000196 <.do_clear_bss_loop>:
     196:	1d 92       	st	X+, r1

00000198 <.do_clear_bss_start>:
     198:	a3 34       	cpi	r26, 0x43	; 67
     19a:	b2 07       	cpc	r27, r18
     19c:	e1 f7       	brne	.-8      	; 0x196 <.do_clear_bss_loop>
     19e:	0e 94 84 05 	call	0xb08	; 0xb08 <main>
     1a2:	0c 94 a1 18 	jmp	0x3142	; 0x3142 <_exit>

000001a6 <__bad_interrupt>:
     1a6:	0c 94 00 00 	jmp	0	; 0x0 <__vectors>

000001aa <_Z17u8_AM2303_ReadBith>:
	}
	else
	{
		return 0;
	}
}
     1aa:	29 b3       	in	r18, 0x19	; 25
     1ac:	30 e0       	ldi	r19, 0x00	; 0
     1ae:	08 2e       	mov	r0, r24
     1b0:	02 c0       	rjmp	.+4      	; 0x1b6 <_Z17u8_AM2303_ReadBith+0xc>
     1b2:	35 95       	asr	r19
     1b4:	27 95       	ror	r18
     1b6:	0a 94       	dec	r0
     1b8:	e2 f7       	brpl	.-8      	; 0x1b2 <_Z17u8_AM2303_ReadBith+0x8>
     1ba:	20 ff       	sbrs	r18, 0
     1bc:	5a c0       	rjmp	.+180    	; 0x272 <_Z17u8_AM2303_ReadBith+0xc8>
     1be:	41 e0       	ldi	r20, 0x01	; 1
     1c0:	50 e0       	ldi	r21, 0x00	; 0
     1c2:	08 2e       	mov	r0, r24
     1c4:	02 c0       	rjmp	.+4      	; 0x1ca <_Z17u8_AM2303_ReadBith+0x20>
     1c6:	44 0f       	add	r20, r20
     1c8:	55 1f       	adc	r21, r21
     1ca:	0a 94       	dec	r0
     1cc:	e2 f7       	brpl	.-8      	; 0x1c6 <_Z17u8_AM2303_ReadBith+0x1c>
     1ce:	9b e3       	ldi	r25, 0x3B	; 59
     1d0:	03 c0       	rjmp	.+6      	; 0x1d8 <_Z17u8_AM2303_ReadBith+0x2e>
     1d2:	91 50       	subi	r25, 0x01	; 1
     1d4:	09 f4       	brne	.+2      	; 0x1d8 <_Z17u8_AM2303_ReadBith+0x2e>
     1d6:	43 c0       	rjmp	.+134    	; 0x25e <_Z17u8_AM2303_ReadBith+0xb4>
     1d8:	25 e0       	ldi	r18, 0x05	; 5
     1da:	2a 95       	dec	r18
     1dc:	f1 f7       	brne	.-4      	; 0x1da <_Z17u8_AM2303_ReadBith+0x30>
     1de:	00 00       	nop
     1e0:	29 b3       	in	r18, 0x19	; 25
     1e2:	30 e0       	ldi	r19, 0x00	; 0
     1e4:	24 23       	and	r18, r20
     1e6:	35 23       	and	r19, r21
     1e8:	23 2b       	or	r18, r19
     1ea:	99 f7       	brne	.-26     	; 0x1d2 <_Z17u8_AM2303_ReadBith+0x28>
     1ec:	42 c0       	rjmp	.+132    	; 0x272 <_Z17u8_AM2303_ReadBith+0xc8>
     1ee:	29 b3       	in	r18, 0x19	; 25
     1f0:	30 e0       	ldi	r19, 0x00	; 0
     1f2:	08 2e       	mov	r0, r24
     1f4:	02 c0       	rjmp	.+4      	; 0x1fa <_Z17u8_AM2303_ReadBith+0x50>
     1f6:	35 95       	asr	r19
     1f8:	27 95       	ror	r18
     1fa:	0a 94       	dec	r0
     1fc:	e2 f7       	brpl	.-8      	; 0x1f6 <_Z17u8_AM2303_ReadBith+0x4c>
     1fe:	20 fd       	sbrc	r18, 0
     200:	13 c0       	rjmp	.+38     	; 0x228 <_Z17u8_AM2303_ReadBith+0x7e>
     202:	8f ef       	ldi	r24, 0xFF	; 255
     204:	08 95       	ret
     206:	91 50       	subi	r25, 0x01	; 1
     208:	61 f1       	breq	.+88     	; 0x262 <_Z17u8_AM2303_ReadBith+0xb8>
     20a:	25 e0       	ldi	r18, 0x05	; 5
     20c:	2a 95       	dec	r18
     20e:	f1 f7       	brne	.-4      	; 0x20c <_Z17u8_AM2303_ReadBith+0x62>
     210:	00 00       	nop
     212:	29 b3       	in	r18, 0x19	; 25
     214:	30 e0       	ldi	r19, 0x00	; 0
     216:	24 23       	and	r18, r20
     218:	35 23       	and	r19, r21
     21a:	23 2b       	or	r18, r19
     21c:	a1 f3       	breq	.-24     	; 0x206 <_Z17u8_AM2303_ReadBith+0x5c>
     21e:	3d c0       	rjmp	.+122    	; 0x29a <_Z17u8_AM2303_ReadBith+0xf0>
     220:	2b 5f       	subi	r18, 0xFB	; 251
     222:	2f 3f       	cpi	r18, 0xFF	; 255
     224:	49 f4       	brne	.+18     	; 0x238 <_Z17u8_AM2303_ReadBith+0x8e>
     226:	1f c0       	rjmp	.+62     	; 0x266 <_Z17u8_AM2303_ReadBith+0xbc>
     228:	41 e0       	ldi	r20, 0x01	; 1
     22a:	50 e0       	ldi	r21, 0x00	; 0
     22c:	02 c0       	rjmp	.+4      	; 0x232 <_Z17u8_AM2303_ReadBith+0x88>
     22e:	44 0f       	add	r20, r20
     230:	55 1f       	adc	r21, r21
     232:	8a 95       	dec	r24
     234:	e2 f7       	brpl	.-8      	; 0x22e <_Z17u8_AM2303_ReadBith+0x84>
     236:	25 e0       	ldi	r18, 0x05	; 5
     238:	8a e1       	ldi	r24, 0x1A	; 26
     23a:	8a 95       	dec	r24
     23c:	f1 f7       	brne	.-4      	; 0x23a <_Z17u8_AM2303_ReadBith+0x90>
     23e:	00 c0       	rjmp	.+0      	; 0x240 <_Z17u8_AM2303_ReadBith+0x96>
     240:	89 b3       	in	r24, 0x19	; 25
     242:	90 e0       	ldi	r25, 0x00	; 0
     244:	84 23       	and	r24, r20
     246:	95 23       	and	r25, r21
     248:	89 2b       	or	r24, r25
     24a:	51 f7       	brne	.-44     	; 0x220 <_Z17u8_AM2303_ReadBith+0x76>
     24c:	86 ef       	ldi	r24, 0xF6	; 246
     24e:	82 0f       	add	r24, r18
     250:	84 32       	cpi	r24, 0x24	; 36
     252:	58 f0       	brcs	.+22     	; 0x26a <_Z17u8_AM2303_ReadBith+0xc0>
     254:	27 53       	subi	r18, 0x37	; 55
     256:	24 32       	cpi	r18, 0x24	; 36
     258:	50 f0       	brcs	.+20     	; 0x26e <_Z17u8_AM2303_ReadBith+0xc4>
     25a:	8f ef       	ldi	r24, 0xFF	; 255
     25c:	08 95       	ret
     25e:	8f ef       	ldi	r24, 0xFF	; 255
     260:	08 95       	ret
     262:	8f ef       	ldi	r24, 0xFF	; 255
     264:	08 95       	ret
     266:	8f ef       	ldi	r24, 0xFF	; 255
     268:	08 95       	ret
     26a:	80 e0       	ldi	r24, 0x00	; 0
     26c:	08 95       	ret
     26e:	81 e0       	ldi	r24, 0x01	; 1
     270:	08 95       	ret
     272:	29 b3       	in	r18, 0x19	; 25
     274:	30 e0       	ldi	r19, 0x00	; 0
     276:	08 2e       	mov	r0, r24
     278:	02 c0       	rjmp	.+4      	; 0x27e <_Z17u8_AM2303_ReadBith+0xd4>
     27a:	35 95       	asr	r19
     27c:	27 95       	ror	r18
     27e:	0a 94       	dec	r0
     280:	e2 f7       	brpl	.-8      	; 0x27a <_Z17u8_AM2303_ReadBith+0xd0>
     282:	20 fd       	sbrc	r18, 0
     284:	b4 cf       	rjmp	.-152    	; 0x1ee <_Z17u8_AM2303_ReadBith+0x44>
     286:	41 e0       	ldi	r20, 0x01	; 1
     288:	50 e0       	ldi	r21, 0x00	; 0
     28a:	08 2e       	mov	r0, r24
     28c:	02 c0       	rjmp	.+4      	; 0x292 <_Z17u8_AM2303_ReadBith+0xe8>
     28e:	44 0f       	add	r20, r20
     290:	55 1f       	adc	r21, r21
     292:	0a 94       	dec	r0
     294:	e2 f7       	brpl	.-8      	; 0x28e <_Z17u8_AM2303_ReadBith+0xe4>
     296:	9b e3       	ldi	r25, 0x3B	; 59
     298:	b8 cf       	rjmp	.-144    	; 0x20a <_Z17u8_AM2303_ReadBith+0x60>
     29a:	29 b3       	in	r18, 0x19	; 25
     29c:	30 e0       	ldi	r19, 0x00	; 0
     29e:	08 2e       	mov	r0, r24
     2a0:	02 c0       	rjmp	.+4      	; 0x2a6 <_Z17u8_AM2303_ReadBith+0xfc>
     2a2:	35 95       	asr	r19
     2a4:	27 95       	ror	r18
     2a6:	0a 94       	dec	r0
     2a8:	e2 f7       	brpl	.-8      	; 0x2a2 <_Z17u8_AM2303_ReadBith+0xf8>
     2aa:	20 fd       	sbrc	r18, 0
     2ac:	bd cf       	rjmp	.-134    	; 0x228 <_Z17u8_AM2303_ReadBith+0x7e>
     2ae:	20 e0       	ldi	r18, 0x00	; 0
     2b0:	d1 cf       	rjmp	.-94     	; 0x254 <_Z17u8_AM2303_ReadBith+0xaa>

000002b2 <_Z18u8_AM2303_ReadByteh>:
     2b2:	0f 93       	push	r16
     2b4:	1f 93       	push	r17
     2b6:	cf 93       	push	r28
     2b8:	df 93       	push	r29
     2ba:	d8 2f       	mov	r29, r24
     2bc:	08 e0       	ldi	r16, 0x08	; 8
     2be:	10 e0       	ldi	r17, 0x00	; 0
     2c0:	80 e0       	ldi	r24, 0x00	; 0
     2c2:	c8 2f       	mov	r28, r24
     2c4:	cc 0f       	add	r28, r28
     2c6:	8d 2f       	mov	r24, r29
     2c8:	0e 94 d5 00 	call	0x1aa	; 0x1aa <_Z17u8_AM2303_ReadBith>
     2cc:	8c 2b       	or	r24, r28
     2ce:	01 50       	subi	r16, 0x01	; 1
     2d0:	11 09       	sbc	r17, r1
     2d2:	b9 f7       	brne	.-18     	; 0x2c2 <_Z18u8_AM2303_ReadByteh+0x10>
     2d4:	df 91       	pop	r29
     2d6:	cf 91       	pop	r28
     2d8:	1f 91       	pop	r17
     2da:	0f 91       	pop	r16
     2dc:	08 95       	ret

000002de <_Z14u8_AM2303_Inith>:
     2de:	9a b3       	in	r25, 0x1a	; 26
     2e0:	41 e0       	ldi	r20, 0x01	; 1
     2e2:	50 e0       	ldi	r21, 0x00	; 0
     2e4:	08 2e       	mov	r0, r24
     2e6:	02 c0       	rjmp	.+4      	; 0x2ec <_Z14u8_AM2303_Inith+0xe>
     2e8:	44 0f       	add	r20, r20
     2ea:	55 1f       	adc	r21, r21
     2ec:	0a 94       	dec	r0
     2ee:	e2 f7       	brpl	.-8      	; 0x2e8 <_Z14u8_AM2303_Inith+0xa>
     2f0:	94 2b       	or	r25, r20
     2f2:	9a bb       	out	0x1a, r25	; 26
     2f4:	2b b3       	in	r18, 0x1b	; 27
     2f6:	94 2f       	mov	r25, r20
     2f8:	90 95       	com	r25
     2fa:	29 23       	and	r18, r25
     2fc:	2b bb       	out	0x1b, r18	; 27
     2fe:	2f ef       	ldi	r18, 0xFF	; 255
     300:	39 ef       	ldi	r19, 0xF9	; 249
     302:	60 e0       	ldi	r22, 0x00	; 0
     304:	21 50       	subi	r18, 0x01	; 1
     306:	30 40       	sbci	r19, 0x00	; 0
     308:	60 40       	sbci	r22, 0x00	; 0
     30a:	e1 f7       	brne	.-8      	; 0x304 <_Z14u8_AM2303_Inith+0x26>
     30c:	00 c0       	rjmp	.+0      	; 0x30e <_Z14u8_AM2303_Inith+0x30>
     30e:	00 00       	nop
     310:	2b b3       	in	r18, 0x1b	; 27
     312:	24 2b       	or	r18, r20
     314:	2b bb       	out	0x1b, r18	; 27
     316:	2a b3       	in	r18, 0x1a	; 26
     318:	92 23       	and	r25, r18
     31a:	9a bb       	out	0x1a, r25	; 26
     31c:	f8 94       	cli
     31e:	29 b3       	in	r18, 0x19	; 25
     320:	30 e0       	ldi	r19, 0x00	; 0
     322:	08 2e       	mov	r0, r24
     324:	02 c0       	rjmp	.+4      	; 0x32a <_Z14u8_AM2303_Inith+0x4c>
     326:	35 95       	asr	r19
     328:	27 95       	ror	r18
     32a:	0a 94       	dec	r0
     32c:	e2 f7       	brpl	.-8      	; 0x326 <_Z14u8_AM2303_Inith+0x48>
     32e:	20 fd       	sbrc	r18, 0
     330:	05 c0       	rjmp	.+10     	; 0x33c <_Z14u8_AM2303_Inith+0x5e>
     332:	60 e0       	ldi	r22, 0x00	; 0
     334:	11 c0       	rjmp	.+34     	; 0x358 <_Z14u8_AM2303_Inith+0x7a>
     336:	91 50       	subi	r25, 0x01	; 1
     338:	11 f4       	brne	.+4      	; 0x33e <_Z14u8_AM2303_Inith+0x60>
     33a:	0d c0       	rjmp	.+26     	; 0x356 <_Z14u8_AM2303_Inith+0x78>
     33c:	98 ec       	ldi	r25, 0xC8	; 200
     33e:	25 e0       	ldi	r18, 0x05	; 5
     340:	2a 95       	dec	r18
     342:	f1 f7       	brne	.-4      	; 0x340 <_Z14u8_AM2303_Inith+0x62>
     344:	00 00       	nop
     346:	29 b3       	in	r18, 0x19	; 25
     348:	30 e0       	ldi	r19, 0x00	; 0
     34a:	24 23       	and	r18, r20
     34c:	35 23       	and	r19, r21
     34e:	23 2b       	or	r18, r19
     350:	91 f7       	brne	.-28     	; 0x336 <_Z14u8_AM2303_Inith+0x58>
     352:	60 e0       	ldi	r22, 0x00	; 0
     354:	01 c0       	rjmp	.+2      	; 0x358 <_Z14u8_AM2303_Inith+0x7a>
     356:	61 e0       	ldi	r22, 0x01	; 1
     358:	29 b3       	in	r18, 0x19	; 25
     35a:	30 e0       	ldi	r19, 0x00	; 0
     35c:	08 2e       	mov	r0, r24
     35e:	02 c0       	rjmp	.+4      	; 0x364 <_Z14u8_AM2303_Inith+0x86>
     360:	35 95       	asr	r19
     362:	27 95       	ror	r18
     364:	0a 94       	dec	r0
     366:	e2 f7       	brpl	.-8      	; 0x360 <_Z14u8_AM2303_Inith+0x82>
     368:	20 ff       	sbrs	r18, 0
     36a:	05 c0       	rjmp	.+10     	; 0x376 <_Z14u8_AM2303_Inith+0x98>
     36c:	0f c0       	rjmp	.+30     	; 0x38c <_Z14u8_AM2303_Inith+0xae>
     36e:	91 50       	subi	r25, 0x01	; 1
     370:	19 f4       	brne	.+6      	; 0x378 <_Z14u8_AM2303_Inith+0x9a>
     372:	6f 5f       	subi	r22, 0xFF	; 255
     374:	0b c0       	rjmp	.+22     	; 0x38c <_Z14u8_AM2303_Inith+0xae>
     376:	95 e5       	ldi	r25, 0x55	; 85
     378:	35 e0       	ldi	r19, 0x05	; 5
     37a:	3a 95       	dec	r19
     37c:	f1 f7       	brne	.-4      	; 0x37a <_Z14u8_AM2303_Inith+0x9c>
     37e:	00 00       	nop
     380:	29 b3       	in	r18, 0x19	; 25
     382:	30 e0       	ldi	r19, 0x00	; 0
     384:	24 23       	and	r18, r20
     386:	35 23       	and	r19, r21
     388:	23 2b       	or	r18, r19
     38a:	89 f3       	breq	.-30     	; 0x36e <_Z14u8_AM2303_Inith+0x90>
     38c:	29 b3       	in	r18, 0x19	; 25
     38e:	30 e0       	ldi	r19, 0x00	; 0
     390:	02 c0       	rjmp	.+4      	; 0x396 <_Z14u8_AM2303_Inith+0xb8>
     392:	35 95       	asr	r19
     394:	27 95       	ror	r18
     396:	8a 95       	dec	r24
     398:	e2 f7       	brpl	.-8      	; 0x392 <_Z14u8_AM2303_Inith+0xb4>
     39a:	20 fd       	sbrc	r18, 0
     39c:	05 c0       	rjmp	.+10     	; 0x3a8 <_Z14u8_AM2303_Inith+0xca>
     39e:	0f c0       	rjmp	.+30     	; 0x3be <_Z14u8_AM2303_Inith+0xe0>
     3a0:	91 50       	subi	r25, 0x01	; 1
     3a2:	19 f4       	brne	.+6      	; 0x3aa <_Z14u8_AM2303_Inith+0xcc>
     3a4:	6f 5f       	subi	r22, 0xFF	; 255
     3a6:	0b c0       	rjmp	.+22     	; 0x3be <_Z14u8_AM2303_Inith+0xe0>
     3a8:	95 e5       	ldi	r25, 0x55	; 85
     3aa:	85 e0       	ldi	r24, 0x05	; 5
     3ac:	8a 95       	dec	r24
     3ae:	f1 f7       	brne	.-4      	; 0x3ac <_Z14u8_AM2303_Inith+0xce>
     3b0:	00 00       	nop
     3b2:	29 b3       	in	r18, 0x19	; 25
     3b4:	30 e0       	ldi	r19, 0x00	; 0
     3b6:	24 23       	and	r18, r20
     3b8:	35 23       	and	r19, r21
     3ba:	23 2b       	or	r18, r19
     3bc:	89 f7       	brne	.-30     	; 0x3a0 <_Z14u8_AM2303_Inith+0xc2>
     3be:	86 2f       	mov	r24, r22
     3c0:	08 95       	ret

000003c2 <_Z16t_AM2303_Readouth>:
     3c2:	df 92       	push	r13
     3c4:	ef 92       	push	r14
     3c6:	ff 92       	push	r15
     3c8:	0f 93       	push	r16
     3ca:	1f 93       	push	r17
     3cc:	cf 93       	push	r28
     3ce:	df 93       	push	r29
     3d0:	00 d0       	rcall	.+0      	; 0x3d2 <_Z16t_AM2303_Readouth+0x10>
     3d2:	00 d0       	rcall	.+0      	; 0x3d4 <_Z16t_AM2303_Readouth+0x12>
     3d4:	1f 92       	push	r1
     3d6:	cd b7       	in	r28, 0x3d	; 61
     3d8:	de b7       	in	r29, 0x3e	; 62
     3da:	18 2f       	mov	r17, r24
     3dc:	0e 94 6f 01 	call	0x2de	; 0x2de <_Z14u8_AM2303_Inith>
     3e0:	81 11       	cpse	r24, r1
     3e2:	2c c0       	rjmp	.+88     	; 0x43c <__LOCK_REGION_LENGTH__+0x3c>
     3e4:	81 2f       	mov	r24, r17
     3e6:	0e 94 59 01 	call	0x2b2	; 0x2b2 <_Z18u8_AM2303_ReadByteh>
     3ea:	d8 2e       	mov	r13, r24
     3ec:	81 2f       	mov	r24, r17
     3ee:	0e 94 59 01 	call	0x2b2	; 0x2b2 <_Z18u8_AM2303_ReadByteh>
     3f2:	e8 2e       	mov	r14, r24
     3f4:	81 2f       	mov	r24, r17
     3f6:	0e 94 59 01 	call	0x2b2	; 0x2b2 <_Z18u8_AM2303_ReadByteh>
     3fa:	f8 2e       	mov	r15, r24
     3fc:	81 2f       	mov	r24, r17
     3fe:	0e 94 59 01 	call	0x2b2	; 0x2b2 <_Z18u8_AM2303_ReadByteh>
     402:	08 2f       	mov	r16, r24
     404:	81 2f       	mov	r24, r17
     406:	0e 94 59 01 	call	0x2b2	; 0x2b2 <_Z18u8_AM2303_ReadByteh>
     40a:	2e 2d       	mov	r18, r14
     40c:	30 e0       	ldi	r19, 0x00	; 0
     40e:	2d 0d       	add	r18, r13
     410:	31 1d       	adc	r19, r1
     412:	2f 0d       	add	r18, r15
     414:	31 1d       	adc	r19, r1
     416:	20 0f       	add	r18, r16
     418:	31 1d       	adc	r19, r1
     41a:	48 2f       	mov	r20, r24
     41c:	50 e0       	ldi	r21, 0x00	; 0
     41e:	24 17       	cp	r18, r20
     420:	35 07       	cpc	r19, r21
     422:	31 f4       	brne	.+12     	; 0x430 <__LOCK_REGION_LENGTH__+0x30>
     424:	d9 82       	std	Y+1, r13	; 0x01
     426:	ea 82       	std	Y+2, r14	; 0x02
     428:	fb 82       	std	Y+3, r15	; 0x03
     42a:	0c 83       	std	Y+4, r16	; 0x04
     42c:	8d 83       	std	Y+5, r24	; 0x05
     42e:	0b c0       	rjmp	.+22     	; 0x446 <__LOCK_REGION_LENGTH__+0x46>
     430:	d9 82       	std	Y+1, r13	; 0x01
     432:	ea 82       	std	Y+2, r14	; 0x02
     434:	fb 82       	std	Y+3, r15	; 0x03
     436:	0c 83       	std	Y+4, r16	; 0x04
     438:	8d 83       	std	Y+5, r24	; 0x05
     43a:	05 c0       	rjmp	.+10     	; 0x446 <__LOCK_REGION_LENGTH__+0x46>
     43c:	19 82       	std	Y+1, r1	; 0x01
     43e:	1a 82       	std	Y+2, r1	; 0x02
     440:	1b 82       	std	Y+3, r1	; 0x03
     442:	1c 82       	std	Y+4, r1	; 0x04
     444:	1d 82       	std	Y+5, r1	; 0x05
     446:	29 81       	ldd	r18, Y+1	; 0x01
     448:	3a 81       	ldd	r19, Y+2	; 0x02
     44a:	4b 81       	ldd	r20, Y+3	; 0x03
     44c:	5c 81       	ldd	r21, Y+4	; 0x04
     44e:	6d 81       	ldd	r22, Y+5	; 0x05
     450:	70 e0       	ldi	r23, 0x00	; 0
     452:	80 e0       	ldi	r24, 0x00	; 0
     454:	90 e0       	ldi	r25, 0x00	; 0
     456:	0f 90       	pop	r0
     458:	0f 90       	pop	r0
     45a:	0f 90       	pop	r0
     45c:	0f 90       	pop	r0
     45e:	0f 90       	pop	r0
     460:	df 91       	pop	r29
     462:	cf 91       	pop	r28
     464:	1f 91       	pop	r17
     466:	0f 91       	pop	r16
     468:	ff 90       	pop	r15
     46a:	ef 90       	pop	r14
     46c:	df 90       	pop	r13
     46e:	08 95       	ret

00000470 <_Z19AM2302_u16_to_floatj>:

float AM2302_u16_to_float(uint16_t data)
{
	float erg = 0;
	if ((data & 0x8000) == 0)
     470:	99 23       	and	r25, r25
     472:	64 f0       	brlt	.+24     	; 0x48c <_Z19AM2302_u16_to_floatj+0x1c>
	{
		erg = data;
     474:	bc 01       	movw	r22, r24
     476:	80 e0       	ldi	r24, 0x00	; 0
     478:	90 e0       	ldi	r25, 0x00	; 0
     47a:	0e 94 1e 17 	call	0x2e3c	; 0x2e3c <__floatunsisf>
		erg = erg / 10;
     47e:	20 e0       	ldi	r18, 0x00	; 0
     480:	30 e0       	ldi	r19, 0x00	; 0
     482:	40 e2       	ldi	r20, 0x20	; 32
     484:	51 e4       	ldi	r21, 0x41	; 65
     486:	0e 94 7d 16 	call	0x2cfa	; 0x2cfa <__divsf3>
     48a:	08 95       	ret
	} 
	else
	{
		erg = data;
     48c:	bc 01       	movw	r22, r24
     48e:	80 e0       	ldi	r24, 0x00	; 0
     490:	90 e0       	ldi	r25, 0x00	; 0
     492:	0e 94 1e 17 	call	0x2e3c	; 0x2e3c <__floatunsisf>
		erg = erg / 10;
     496:	20 e0       	ldi	r18, 0x00	; 0
     498:	30 e0       	ldi	r19, 0x00	; 0
     49a:	40 e2       	ldi	r20, 0x20	; 32
     49c:	51 e4       	ldi	r21, 0x41	; 65
     49e:	0e 94 7d 16 	call	0x2cfa	; 0x2cfa <__divsf3>
		erg *= -1;
     4a2:	90 58       	subi	r25, 0x80	; 128
	}
	return erg;
     4a4:	08 95       	ret

000004a6 <_Z17t_AM2303_Get_Datah>:
		return data;
	}	
}

AM2303_Data t_AM2303_Get_Data(uint8_t used_pin)
{
     4a6:	cf 92       	push	r12
     4a8:	df 92       	push	r13
     4aa:	ef 92       	push	r14
     4ac:	ff 92       	push	r15
     4ae:	0f 93       	push	r16
     4b0:	1f 93       	push	r17
     4b2:	cf 93       	push	r28
     4b4:	df 93       	push	r29
     4b6:	cd b7       	in	r28, 0x3d	; 61
     4b8:	de b7       	in	r29, 0x3e	; 62
     4ba:	2d 97       	sbiw	r28, 0x0d	; 13
     4bc:	0f b6       	in	r0, 0x3f	; 63
     4be:	f8 94       	cli
     4c0:	de bf       	out	0x3e, r29	; 62
     4c2:	0f be       	out	0x3f, r0	; 63
     4c4:	cd bf       	out	0x3d, r28	; 61
	AM2303_Registers data_in;
	AM2303_Data data_out;
	uint16_t help = 0;
	
	data_in = t_AM2303_Readout(used_pin);
     4c6:	0e 94 e1 01 	call	0x3c2	; 0x3c2 <_Z16t_AM2303_Readouth>
     4ca:	c4 2e       	mov	r12, r20
     4cc:	05 2f       	mov	r16, r21
	help |= (uint16_t)(data_in.u8_humidity_H << 8);
	help |= data_in.u8_humidity_L;
	data_out.f_humidity= AM2302_u16_to_float(help);
     4ce:	83 2f       	mov	r24, r19
     4d0:	90 e0       	ldi	r25, 0x00	; 0
     4d2:	92 2b       	or	r25, r18
     4d4:	0e 94 38 02 	call	0x470	; 0x470 <_Z19AM2302_u16_to_floatj>
     4d8:	16 2f       	mov	r17, r22
     4da:	d7 2e       	mov	r13, r23
     4dc:	e8 2e       	mov	r14, r24
     4de:	f9 2e       	mov	r15, r25
	help = 0;
	help |= (uint16_t)data_in.u8_temperatur_H << 8;
	help |= data_in.u8_temperatur_L;
	data_out.f_temperatur = AM2302_u16_to_float(help);
     4e0:	80 2f       	mov	r24, r16
     4e2:	90 e0       	ldi	r25, 0x00	; 0
     4e4:	9c 29       	or	r25, r12
     4e6:	0e 94 38 02 	call	0x470	; 0x470 <_Z19AM2302_u16_to_floatj>
     4ea:	e6 2f       	mov	r30, r22
     4ec:	27 2f       	mov	r18, r23
	return data_out;
     4ee:	41 2f       	mov	r20, r17
     4f0:	5d 2d       	mov	r21, r13
     4f2:	6e 2d       	mov	r22, r14
     4f4:	7f 2d       	mov	r23, r15
     4f6:	49 83       	std	Y+1, r20	; 0x01
     4f8:	5a 83       	std	Y+2, r21	; 0x02
     4fa:	6b 83       	std	Y+3, r22	; 0x03
     4fc:	7c 83       	std	Y+4, r23	; 0x04
     4fe:	4e 2f       	mov	r20, r30
     500:	52 2f       	mov	r21, r18
     502:	68 2f       	mov	r22, r24
     504:	79 2f       	mov	r23, r25
     506:	4d 83       	std	Y+5, r20	; 0x05
     508:	5e 83       	std	Y+6, r21	; 0x06
     50a:	6f 83       	std	Y+7, r22	; 0x07
     50c:	78 87       	std	Y+8, r23	; 0x08
     50e:	21 2f       	mov	r18, r17
     510:	3a 81       	ldd	r19, Y+2	; 0x02
     512:	4b 81       	ldd	r20, Y+3	; 0x03
     514:	5c 81       	ldd	r21, Y+4	; 0x04
     516:	6e 2f       	mov	r22, r30
     518:	7e 81       	ldd	r23, Y+6	; 0x06
}
     51a:	8f 81       	ldd	r24, Y+7	; 0x07
     51c:	98 85       	ldd	r25, Y+8	; 0x08
     51e:	2d 96       	adiw	r28, 0x0d	; 13
     520:	0f b6       	in	r0, 0x3f	; 63
     522:	f8 94       	cli
     524:	de bf       	out	0x3e, r29	; 62
     526:	0f be       	out	0x3f, r0	; 63
     528:	cd bf       	out	0x3d, r28	; 61
     52a:	df 91       	pop	r29
     52c:	cf 91       	pop	r28
     52e:	1f 91       	pop	r17
     530:	0f 91       	pop	r16
     532:	ff 90       	pop	r15
     534:	ef 90       	pop	r14
     536:	df 90       	pop	r13
     538:	cf 90       	pop	r12
     53a:	08 95       	ret

0000053c <_Z11temp_update7t_param>:
/********************Lokale Funktionen************************************/
/*************************************************************************/

/********************Temperatur lesen und PID Regler Updaten*************/
void temp_update(t_param param)
{
     53c:	4f 92       	push	r4
     53e:	5f 92       	push	r5
     540:	6f 92       	push	r6
     542:	7f 92       	push	r7
     544:	af 92       	push	r10
     546:	bf 92       	push	r11
     548:	cf 92       	push	r12
     54a:	df 92       	push	r13
     54c:	ef 92       	push	r14
     54e:	ff 92       	push	r15
     550:	0f 93       	push	r16
     552:	1f 93       	push	r17
     554:	cf 93       	push	r28
     556:	df 93       	push	r29
     558:	cd b7       	in	r28, 0x3d	; 61
     55a:	de b7       	in	r29, 0x3e	; 62
     55c:	60 97       	sbiw	r28, 0x10	; 16
     55e:	0f b6       	in	r0, 0x3f	; 63
     560:	f8 94       	cli
     562:	de bf       	out	0x3e, r29	; 62
     564:	0f be       	out	0x3f, r0	; 63
     566:	cd bf       	out	0x3d, r28	; 61
     568:	a9 82       	std	Y+1, r10	; 0x01
     56a:	ba 82       	std	Y+2, r11	; 0x02
     56c:	cb 82       	std	Y+3, r12	; 0x03
     56e:	dc 82       	std	Y+4, r13	; 0x04
     570:	ed 82       	std	Y+5, r14	; 0x05
     572:	fe 82       	std	Y+6, r15	; 0x06
     574:	0f 83       	std	Y+7, r16	; 0x07
     576:	18 87       	std	Y+8, r17	; 0x08
     578:	29 87       	std	Y+9, r18	; 0x09
     57a:	3a 87       	std	Y+10, r19	; 0x0a
     57c:	4b 87       	std	Y+11, r20	; 0x0b
     57e:	5c 87       	std	Y+12, r21	; 0x0c
     580:	6d 87       	std	Y+13, r22	; 0x0d
     582:	7e 87       	std	Y+14, r23	; 0x0e
     584:	8f 87       	std	Y+15, r24	; 0x0f
     586:	98 8b       	std	Y+16, r25	; 0x10
     588:	e2 2e       	mov	r14, r18
     58a:	ca 84       	ldd	r12, Y+10	; 0x0a
     58c:	db 84       	ldd	r13, Y+11	; 0x0b
     58e:	f5 2e       	mov	r15, r21
     590:	18 2f       	mov	r17, r24

	cli();
     592:	f8 94       	cli
	if ((param.status_ist == eHeat_NA) || (param.status_ist == eHeat_Off))  
     594:	86 30       	cpi	r24, 0x06	; 6
     596:	11 f0       	breq	.+4      	; 0x59c <_Z11temp_update7t_param+0x60>
     598:	81 11       	cpse	r24, r1
     59a:	06 c0       	rjmp	.+12     	; 0x5a8 <_Z11temp_update7t_param+0x6c>
	{
		softPWM_setvalue(param.channel, 0);
     59c:	60 e0       	ldi	r22, 0x00	; 0
     59e:	8f 2d       	mov	r24, r15
     5a0:	0e 94 ec 15 	call	0x2bd8	; 0x2bd8 <_Z16softPWM_setvalue17e_softPWM_channelh>
		sei();
     5a4:	78 94       	sei
		return;
     5a6:	6f c0       	rjmp	.+222    	; 0x686 <_Z11temp_update7t_param+0x14a>
	}
	*param.t_istwert = ds1820_read_temp(param.sensor);
     5a8:	82 2f       	mov	r24, r18
     5aa:	0e 94 3d 08 	call	0x107a	; 0x107a <_Z16ds1820_read_temph>
     5ae:	f6 01       	movw	r30, r12
     5b0:	91 83       	std	Z+1, r25	; 0x01
     5b2:	80 83       	st	Z, r24
	//sei();
	*param.t_istwert = *param.t_istwert + *param.t_offset;
     5b4:	eb 81       	ldd	r30, Y+3	; 0x03
     5b6:	fc 81       	ldd	r31, Y+4	; 0x04
     5b8:	a0 80       	ld	r10, Z
     5ba:	b1 80       	ldd	r11, Z+1	; 0x01
     5bc:	a8 0e       	add	r10, r24
     5be:	b9 1e       	adc	r11, r25
     5c0:	f6 01       	movw	r30, r12
     5c2:	b1 82       	std	Z+1, r11	; 0x01
     5c4:	a0 82       	st	Z, r10
	
	if(((sys_time / 100) < (DAY - *param.t_cooldown*60)) && (param.status_ist == eHeat_On))
     5c6:	60 91 4c 05 	lds	r22, 0x054C	; 0x80054c <__data_end>
     5ca:	70 91 4d 05 	lds	r23, 0x054D	; 0x80054d <__data_end+0x1>
     5ce:	80 91 4e 05 	lds	r24, 0x054E	; 0x80054e <__data_end+0x2>
     5d2:	90 91 4f 05 	lds	r25, 0x054F	; 0x80054f <__data_end+0x3>
     5d6:	24 e6       	ldi	r18, 0x64	; 100
     5d8:	30 e0       	ldi	r19, 0x00	; 0
     5da:	40 e0       	ldi	r20, 0x00	; 0
     5dc:	50 e0       	ldi	r21, 0x00	; 0
     5de:	0e 94 42 18 	call	0x3084	; 0x3084 <__udivmodsi4>
     5e2:	ef 81       	ldd	r30, Y+7	; 0x07
     5e4:	f8 85       	ldd	r31, Y+8	; 0x08
     5e6:	80 81       	ld	r24, Z
     5e8:	91 81       	ldd	r25, Z+1	; 0x01
     5ea:	ec e3       	ldi	r30, 0x3C	; 60
     5ec:	e8 9f       	mul	r30, r24
     5ee:	b0 01       	movw	r22, r0
     5f0:	e9 9f       	mul	r30, r25
     5f2:	70 0d       	add	r23, r0
     5f4:	11 24       	eor	r1, r1
     5f6:	2b 01       	movw	r4, r22
     5f8:	77 0f       	add	r23, r23
     5fa:	66 08       	sbc	r6, r6
     5fc:	77 08       	sbc	r7, r7
     5fe:	80 e8       	ldi	r24, 0x80	; 128
     600:	91 e5       	ldi	r25, 0x51	; 81
     602:	a1 e0       	ldi	r26, 0x01	; 1
     604:	b0 e0       	ldi	r27, 0x00	; 0
     606:	84 19       	sub	r24, r4
     608:	95 09       	sbc	r25, r5
     60a:	a6 09       	sbc	r26, r6
     60c:	b7 09       	sbc	r27, r7
     60e:	28 17       	cp	r18, r24
     610:	39 07       	cpc	r19, r25
     612:	4a 07       	cpc	r20, r26
     614:	5b 07       	cpc	r21, r27
     616:	60 f5       	brcc	.+88     	; 0x670 <_Z11temp_update7t_param+0x134>
     618:	11 30       	cpi	r17, 0x01	; 1
     61a:	51 f5       	brne	.+84     	; 0x670 <_Z11temp_update7t_param+0x134>
	{
		softPWM_setvalue(param.channel, pid_update(param.pid_para, ((float)*param.t_sollwert) / 10, ((float)*param.t_istwert) / 10));
     61c:	b5 01       	movw	r22, r10
     61e:	80 e0       	ldi	r24, 0x00	; 0
     620:	90 e0       	ldi	r25, 0x00	; 0
     622:	0e 94 1e 17 	call	0x2e3c	; 0x2e3c <__floatunsisf>
     626:	20 e0       	ldi	r18, 0x00	; 0
     628:	30 e0       	ldi	r19, 0x00	; 0
     62a:	40 e2       	ldi	r20, 0x20	; 32
     62c:	51 e4       	ldi	r21, 0x41	; 65
     62e:	0e 94 7d 16 	call	0x2cfa	; 0x2cfa <__divsf3>
     632:	2b 01       	movw	r4, r22
     634:	3c 01       	movw	r6, r24
     636:	e9 81       	ldd	r30, Y+1	; 0x01
     638:	fa 81       	ldd	r31, Y+2	; 0x02
     63a:	60 81       	ld	r22, Z
     63c:	71 81       	ldd	r23, Z+1	; 0x01
     63e:	07 2e       	mov	r0, r23
     640:	00 0c       	add	r0, r0
     642:	88 0b       	sbc	r24, r24
     644:	99 0b       	sbc	r25, r25
     646:	0e 94 20 17 	call	0x2e40	; 0x2e40 <__floatsisf>
     64a:	20 e0       	ldi	r18, 0x00	; 0
     64c:	30 e0       	ldi	r19, 0x00	; 0
     64e:	40 e2       	ldi	r20, 0x20	; 32
     650:	51 e4       	ldi	r21, 0x41	; 65
     652:	0e 94 7d 16 	call	0x2cfa	; 0x2cfa <__divsf3>
     656:	ab 01       	movw	r20, r22
     658:	bc 01       	movw	r22, r24
     65a:	93 01       	movw	r18, r6
     65c:	82 01       	movw	r16, r4
     65e:	8d 85       	ldd	r24, Y+13	; 0x0d
     660:	9e 85       	ldd	r25, Y+14	; 0x0e
     662:	0e 94 ac 13 	call	0x2758	; 0x2758 <_Z10pid_updateP8PID_paraff>
     666:	68 2f       	mov	r22, r24
     668:	8f 2d       	mov	r24, r15
     66a:	0e 94 ec 15 	call	0x2bd8	; 0x2bd8 <_Z16softPWM_setvalue17e_softPWM_channelh>
     66e:	04 c0       	rjmp	.+8      	; 0x678 <_Z11temp_update7t_param+0x13c>
	}else
	{
		softPWM_setvalue(param.channel, 0);
     670:	60 e0       	ldi	r22, 0x00	; 0
     672:	8f 2d       	mov	r24, r15
     674:	0e 94 ec 15 	call	0x2bd8	; 0x2bd8 <_Z16softPWM_setvalue17e_softPWM_channelh>
	}
	ucUpdateDisplay = 1;
     678:	81 e0       	ldi	r24, 0x01	; 1
     67a:	80 93 e9 05 	sts	0x05E9, r24	; 0x8005e9 <ucUpdateDisplay>
	//cli();
	ds1820_measure(param.sensor);
     67e:	8e 2d       	mov	r24, r14
     680:	0e 94 2d 08 	call	0x105a	; 0x105a <_Z14ds1820_measureh>
	sei();
     684:	78 94       	sei

}
     686:	60 96       	adiw	r28, 0x10	; 16
     688:	0f b6       	in	r0, 0x3f	; 63
     68a:	f8 94       	cli
     68c:	de bf       	out	0x3e, r29	; 62
     68e:	0f be       	out	0x3f, r0	; 63
     690:	cd bf       	out	0x3d, r28	; 61
     692:	df 91       	pop	r29
     694:	cf 91       	pop	r28
     696:	1f 91       	pop	r17
     698:	0f 91       	pop	r16
     69a:	ff 90       	pop	r15
     69c:	ef 90       	pop	r14
     69e:	df 90       	pop	r13
     6a0:	cf 90       	pop	r12
     6a2:	bf 90       	pop	r11
     6a4:	af 90       	pop	r10
     6a6:	7f 90       	pop	r7
     6a8:	6f 90       	pop	r6
     6aa:	5f 90       	pop	r5
     6ac:	4f 90       	pop	r4
     6ae:	08 95       	ret

000006b0 <_Z12vUpdateParamP7t_paramS0_>:
/*********************Parameter aus dem EProm in Nutzdaten schreiben*****/
void vUpdateParam(t_param *temp1, t_param *temp2)
{
	if (temp1->status_soll != eHeat_NA)
     6b0:	fc 01       	movw	r30, r24
     6b2:	27 85       	ldd	r18, Z+15	; 0x0f
     6b4:	26 30       	cpi	r18, 0x06	; 6
     6b6:	71 f0       	breq	.+28     	; 0x6d4 <_Z12vUpdateParamP7t_paramS0_+0x24>
	{
		if (pwParameterSave[ePara_Enable2] == 1)
     6b8:	20 91 70 05 	lds	r18, 0x0570	; 0x800570 <pwParameterSave+0x1a>
     6bc:	30 91 71 05 	lds	r19, 0x0571	; 0x800571 <pwParameterSave+0x1b>
     6c0:	21 30       	cpi	r18, 0x01	; 1
     6c2:	31 05       	cpc	r19, r1
     6c4:	21 f4       	brne	.+8      	; 0x6ce <_Z12vUpdateParamP7t_paramS0_+0x1e>
		{
			temp2->status_soll = eHeat_On;
     6c6:	21 e0       	ldi	r18, 0x01	; 1
     6c8:	fb 01       	movw	r30, r22
     6ca:	27 87       	std	Z+15, r18	; 0x0f
     6cc:	07 c0       	rjmp	.+14     	; 0x6dc <_Z12vUpdateParamP7t_paramS0_+0x2c>
		}
		else
		{
			temp2->status_soll = eHeat_Off;
     6ce:	fb 01       	movw	r30, r22
     6d0:	17 86       	std	Z+15, r1	; 0x0f
     6d2:	04 c0       	rjmp	.+8      	; 0x6dc <_Z12vUpdateParamP7t_paramS0_+0x2c>
		}
	}
	if(temp2->status_soll != eHeat_NA)
     6d4:	fb 01       	movw	r30, r22
     6d6:	27 85       	ldd	r18, Z+15	; 0x0f
     6d8:	26 30       	cpi	r18, 0x06	; 6
     6da:	69 f0       	breq	.+26     	; 0x6f6 <_Z12vUpdateParamP7t_paramS0_+0x46>
	{
		if (pwParameterSave[ePara_Enable1] == 1)
     6dc:	20 91 6e 05 	lds	r18, 0x056E	; 0x80056e <pwParameterSave+0x18>
     6e0:	30 91 6f 05 	lds	r19, 0x056F	; 0x80056f <pwParameterSave+0x19>
     6e4:	21 30       	cpi	r18, 0x01	; 1
     6e6:	31 05       	cpc	r19, r1
     6e8:	21 f4       	brne	.+8      	; 0x6f2 <_Z12vUpdateParamP7t_paramS0_+0x42>
		{
			temp1->status_soll = eHeat_On;
     6ea:	21 e0       	ldi	r18, 0x01	; 1
     6ec:	fc 01       	movw	r30, r24
     6ee:	27 87       	std	Z+15, r18	; 0x0f
     6f0:	08 95       	ret
		}
		else
		{
			temp1->status_soll = eHeat_Off;
     6f2:	fc 01       	movw	r30, r24
     6f4:	17 86       	std	Z+15, r1	; 0x0f
     6f6:	08 95       	ret

000006f8 <_Z17checkplausibilityP7t_param11AM2303_Data>:
	}
}

/*********************Plausibilitäts und Fehler Prüfung******************/
void checkplausibility(t_param *temp, AM2303_Data hygro)
{
     6f8:	8f 92       	push	r8
     6fa:	9f 92       	push	r9
     6fc:	af 92       	push	r10
     6fe:	bf 92       	push	r11
     700:	ef 92       	push	r14
     702:	ff 92       	push	r15
     704:	0f 93       	push	r16
     706:	1f 93       	push	r17
     708:	cf 93       	push	r28
     70a:	df 93       	push	r29
     70c:	cd b7       	in	r28, 0x3d	; 61
     70e:	de b7       	in	r29, 0x3e	; 62
     710:	28 97       	sbiw	r28, 0x08	; 8
     712:	0f b6       	in	r0, 0x3f	; 63
     714:	f8 94       	cli
     716:	de bf       	out	0x3e, r29	; 62
     718:	0f be       	out	0x3f, r0	; 63
     71a:	cd bf       	out	0x3d, r28	; 61
     71c:	09 83       	std	Y+1, r16	; 0x01
     71e:	1a 83       	std	Y+2, r17	; 0x02
     720:	2b 83       	std	Y+3, r18	; 0x03
     722:	3c 83       	std	Y+4, r19	; 0x04
     724:	4d 83       	std	Y+5, r20	; 0x05
     726:	5e 83       	std	Y+6, r21	; 0x06
     728:	6f 83       	std	Y+7, r22	; 0x07
     72a:	78 87       	std	Y+8, r23	; 0x08
	float temp_1 = (float)(*(temp->t_istwert) / 10);
	float temp_2 = hygro.f_temperatur;
	if ((temp->status_soll == eHeat_Off) || (temp->status_soll == eHeat_NA))
     72c:	dc 01       	movw	r26, r24
     72e:	1f 96       	adiw	r26, 0x0f	; 15
     730:	1c 91       	ld	r17, X
     732:	11 23       	and	r17, r17
     734:	11 f0       	breq	.+4      	; 0x73a <_Z17checkplausibilityP7t_param11AM2303_Data+0x42>
     736:	16 30       	cpi	r17, 0x06	; 6
     738:	19 f4       	brne	.+6      	; 0x740 <_Z17checkplausibilityP7t_param11AM2303_Data+0x48>
	{
		temp->status_ist = temp->status_soll; 
     73a:	fc 01       	movw	r30, r24
     73c:	16 87       	std	Z+14, r17	; 0x0e
     73e:	6d c0       	rjmp	.+218    	; 0x81a <_Z17checkplausibilityP7t_param11AM2303_Data+0x122>
     740:	7c 01       	movw	r14, r24
}

/*********************Plausibilitäts und Fehler Prüfung******************/
void checkplausibility(t_param *temp, AM2303_Data hygro)
{
	float temp_1 = (float)(*(temp->t_istwert) / 10);
     742:	dc 01       	movw	r26, r24
     744:	19 96       	adiw	r26, 0x09	; 9
     746:	ed 91       	ld	r30, X+
     748:	fc 91       	ld	r31, X
     74a:	1a 97       	sbiw	r26, 0x0a	; 10
     74c:	20 81       	ld	r18, Z
     74e:	31 81       	ldd	r19, Z+1	; 0x01
     750:	ad ec       	ldi	r26, 0xCD	; 205
     752:	bc ec       	ldi	r27, 0xCC	; 204
     754:	0e 94 6a 18 	call	0x30d4	; 0x30d4 <__umulhisi3>
     758:	96 95       	lsr	r25
     75a:	87 95       	ror	r24
     75c:	96 95       	lsr	r25
     75e:	87 95       	ror	r24
     760:	96 95       	lsr	r25
     762:	87 95       	ror	r24
     764:	bc 01       	movw	r22, r24
     766:	80 e0       	ldi	r24, 0x00	; 0
     768:	90 e0       	ldi	r25, 0x00	; 0
     76a:	0e 94 1e 17 	call	0x2e3c	; 0x2e3c <__floatunsisf>
     76e:	4b 01       	movw	r8, r22
     770:	5c 01       	movw	r10, r24
	float temp_2 = hygro.f_temperatur;
	if ((temp->status_soll == eHeat_Off) || (temp->status_soll == eHeat_NA))
	{
		temp->status_ist = temp->status_soll; 
	}
	else if (temp_1 == 85.0)
     772:	20 e0       	ldi	r18, 0x00	; 0
     774:	30 e0       	ldi	r19, 0x00	; 0
     776:	4a ea       	ldi	r20, 0xAA	; 170
     778:	52 e4       	ldi	r21, 0x42	; 66
     77a:	0e 94 78 16 	call	0x2cf0	; 0x2cf0 <__cmpsf2>
     77e:	81 11       	cpse	r24, r1
     780:	04 c0       	rjmp	.+8      	; 0x78a <_Z17checkplausibilityP7t_param11AM2303_Data+0x92>
	{
		temp->status_ist =  eHeat_SensorFail;
     782:	82 e0       	ldi	r24, 0x02	; 2
     784:	f7 01       	movw	r30, r14
     786:	86 87       	std	Z+14, r24	; 0x0e
     788:	48 c0       	rjmp	.+144    	; 0x81a <_Z17checkplausibilityP7t_param11AM2303_Data+0x122>
	}
	else if (temp_1 == -127)
     78a:	20 e0       	ldi	r18, 0x00	; 0
     78c:	30 e0       	ldi	r19, 0x00	; 0
     78e:	4e ef       	ldi	r20, 0xFE	; 254
     790:	52 ec       	ldi	r21, 0xC2	; 194
     792:	c5 01       	movw	r24, r10
     794:	b4 01       	movw	r22, r8
     796:	0e 94 78 16 	call	0x2cf0	; 0x2cf0 <__cmpsf2>
     79a:	81 11       	cpse	r24, r1
     79c:	05 c0       	rjmp	.+10     	; 0x7a8 <_Z17checkplausibilityP7t_param11AM2303_Data+0xb0>
	{
		temp->status_ist =  eHeat_SensorFail;
     79e:	82 e0       	ldi	r24, 0x02	; 2
     7a0:	d7 01       	movw	r26, r14
     7a2:	1e 96       	adiw	r26, 0x0e	; 14
     7a4:	8c 93       	st	X, r24
     7a6:	39 c0       	rjmp	.+114    	; 0x81a <_Z17checkplausibilityP7t_param11AM2303_Data+0x122>
	}
	else if (temp_1 > 75.0)
     7a8:	20 e0       	ldi	r18, 0x00	; 0
     7aa:	30 e0       	ldi	r19, 0x00	; 0
     7ac:	46 e9       	ldi	r20, 0x96	; 150
     7ae:	52 e4       	ldi	r21, 0x42	; 66
     7b0:	c5 01       	movw	r24, r10
     7b2:	b4 01       	movw	r22, r8
     7b4:	0e 94 d0 17 	call	0x2fa0	; 0x2fa0 <__gesf2>
     7b8:	18 16       	cp	r1, r24
     7ba:	44 f4       	brge	.+16     	; 0x7cc <_Z17checkplausibilityP7t_param11AM2303_Data+0xd4>
	{		
		temp->status_ist =  eHeat_CriticalOvertemp;
     7bc:	85 e0       	ldi	r24, 0x05	; 5
     7be:	f7 01       	movw	r30, r14
     7c0:	86 87       	std	Z+14, r24	; 0x0e
		vSetSound_ms(250);
     7c2:	8a ef       	ldi	r24, 0xFA	; 250
     7c4:	90 e0       	ldi	r25, 0x00	; 0
     7c6:	0e 94 0b 0a 	call	0x1416	; 0x1416 <_Z12vSetSound_msj>
     7ca:	27 c0       	rjmp	.+78     	; 0x81a <_Z17checkplausibilityP7t_param11AM2303_Data+0x122>
	}
	else if (temp_1 > 50.0)
     7cc:	20 e0       	ldi	r18, 0x00	; 0
     7ce:	30 e0       	ldi	r19, 0x00	; 0
     7d0:	48 e4       	ldi	r20, 0x48	; 72
     7d2:	52 e4       	ldi	r21, 0x42	; 66
     7d4:	c5 01       	movw	r24, r10
     7d6:	b4 01       	movw	r22, r8
     7d8:	0e 94 d0 17 	call	0x2fa0	; 0x2fa0 <__gesf2>
     7dc:	18 16       	cp	r1, r24
     7de:	2c f4       	brge	.+10     	; 0x7ea <_Z17checkplausibilityP7t_param11AM2303_Data+0xf2>
	{
		temp->status_ist =  eHeat_Overtemp;
     7e0:	84 e0       	ldi	r24, 0x04	; 4
     7e2:	d7 01       	movw	r26, r14
     7e4:	1e 96       	adiw	r26, 0x0e	; 14
     7e6:	8c 93       	st	X, r24
     7e8:	18 c0       	rjmp	.+48     	; 0x81a <_Z17checkplausibilityP7t_param11AM2303_Data+0x122>
	}
	else if (fabsf(temp_1 - temp_2) >= 5.0)
     7ea:	2d 81       	ldd	r18, Y+5	; 0x05
     7ec:	3e 81       	ldd	r19, Y+6	; 0x06
     7ee:	4f 81       	ldd	r20, Y+7	; 0x07
     7f0:	58 85       	ldd	r21, Y+8	; 0x08
     7f2:	c5 01       	movw	r24, r10
     7f4:	b4 01       	movw	r22, r8
     7f6:	0e 94 0b 16 	call	0x2c16	; 0x2c16 <__subsf3>
     7fa:	9f 77       	andi	r25, 0x7F	; 127
     7fc:	20 e0       	ldi	r18, 0x00	; 0
     7fe:	30 e0       	ldi	r19, 0x00	; 0
     800:	40 ea       	ldi	r20, 0xA0	; 160
     802:	50 e4       	ldi	r21, 0x40	; 64
     804:	0e 94 d0 17 	call	0x2fa0	; 0x2fa0 <__gesf2>
     808:	88 23       	and	r24, r24
     80a:	24 f0       	brlt	.+8      	; 0x814 <_Z17checkplausibilityP7t_param11AM2303_Data+0x11c>
	{
		temp->status_ist = eHeat_SensorFail;
     80c:	82 e0       	ldi	r24, 0x02	; 2
     80e:	f7 01       	movw	r30, r14
     810:	86 87       	std	Z+14, r24	; 0x0e
     812:	03 c0       	rjmp	.+6      	; 0x81a <_Z17checkplausibilityP7t_param11AM2303_Data+0x122>
	}
	else
		temp->status_ist = temp->status_soll;
     814:	d7 01       	movw	r26, r14
     816:	1e 96       	adiw	r26, 0x0e	; 14
     818:	1c 93       	st	X, r17
}
     81a:	28 96       	adiw	r28, 0x08	; 8
     81c:	0f b6       	in	r0, 0x3f	; 63
     81e:	f8 94       	cli
     820:	de bf       	out	0x3e, r29	; 62
     822:	0f be       	out	0x3f, r0	; 63
     824:	cd bf       	out	0x3d, r28	; 61
     826:	df 91       	pop	r29
     828:	cf 91       	pop	r28
     82a:	1f 91       	pop	r17
     82c:	0f 91       	pop	r16
     82e:	ff 90       	pop	r15
     830:	ef 90       	pop	r14
     832:	bf 90       	pop	r11
     834:	af 90       	pop	r10
     836:	9f 90       	pop	r9
     838:	8f 90       	pop	r8
     83a:	08 95       	ret

0000083c <_Z12hygro_updatehP11AM2303_Data>:

/*********************Hygrometer Daten lesen****************************/
void hygro_update(uint8_t used_pin, AM2303_Data *data)
{
     83c:	cf 93       	push	r28
     83e:	df 93       	push	r29
     840:	eb 01       	movw	r28, r22
	*data = t_AM2303_Get_Data(used_pin);
     842:	0e 94 53 02 	call	0x4a6	; 0x4a6 <_Z17t_AM2303_Get_Datah>
     846:	28 83       	st	Y, r18
     848:	39 83       	std	Y+1, r19	; 0x01
     84a:	4a 83       	std	Y+2, r20	; 0x02
     84c:	5b 83       	std	Y+3, r21	; 0x03
     84e:	6c 83       	std	Y+4, r22	; 0x04
     850:	7d 83       	std	Y+5, r23	; 0x05
     852:	8e 83       	std	Y+6, r24	; 0x06
     854:	9f 83       	std	Y+7, r25	; 0x07
}
     856:	df 91       	pop	r29
     858:	cf 91       	pop	r28
     85a:	08 95       	ret

0000085c <_Z4initv>:

/*********************System Initialisieren*******************************/
void init()
{
     85c:	8f 92       	push	r8
     85e:	9f 92       	push	r9
     860:	af 92       	push	r10
     862:	bf 92       	push	r11
     864:	cf 92       	push	r12
     866:	df 92       	push	r13
     868:	ef 92       	push	r14
     86a:	ff 92       	push	r15
     86c:	0f 93       	push	r16
     86e:	1f 93       	push	r17
     870:	cf 93       	push	r28
     872:	df 93       	push	r29
     874:	cd b7       	in	r28, 0x3d	; 61
     876:	de b7       	in	r29, 0x3e	; 62
     878:	28 97       	sbiw	r28, 0x08	; 8
     87a:	0f b6       	in	r0, 0x3f	; 63
     87c:	f8 94       	cli
     87e:	de bf       	out	0x3e, r29	; 62
     880:	0f be       	out	0x3f, r0	; 63
     882:	cd bf       	out	0x3d, r28	; 61
	hw_init();
     884:	0e 94 aa 08 	call	0x1154	; 0x1154 <_Z7hw_initv>
	set_status(eStatus_Failure);
     888:	82 e0       	ldi	r24, 0x02	; 2
     88a:	0e 94 fd 08 	call	0x11fa	; 0x11fa <_Z10set_status7ESTATUS>
	bl_timer_init();
     88e:	0e 94 d4 08 	call	0x11a8	; 0x11a8 <_Z13bl_timer_initv>
	lcd_init();
     892:	0e 94 78 0a 	call	0x14f0	; 0x14f0 <_Z8lcd_initv>
	set_bl(BL_BRIGHTNESS_MAX);
     896:	83 eb       	ldi	r24, 0xB3	; 179
     898:	0e 94 c0 08 	call	0x1180	; 0x1180 <_Z6set_blh>
	vWriteChar(nDisplayPuffer.z1,"Brutraum-");
     89c:	6b e6       	ldi	r22, 0x6B	; 107
     89e:	70 e0       	ldi	r23, 0x00	; 0
     8a0:	82 e1       	ldi	r24, 0x12	; 18
     8a2:	96 e0       	ldi	r25, 0x06	; 6
     8a4:	0e 94 0d 0b 	call	0x161a	; 0x161a <_Z10vWriteCharPcPKc>
	vWriteChar(nDisplayPuffer.z2,"Steuerung");
     8a8:	65 e7       	ldi	r22, 0x75	; 117
     8aa:	70 e0       	ldi	r23, 0x00	; 0
     8ac:	83 e2       	ldi	r24, 0x23	; 35
     8ae:	96 e0       	ldi	r25, 0x06	; 6
     8b0:	0e 94 0d 0b 	call	0x161a	; 0x161a <_Z10vWriteCharPcPKc>
	vUpdateDisplay();
     8b4:	0e 94 fa 0a 	call	0x15f4	; 0x15f4 <_Z14vUpdateDisplayv>
	#else
		//round up by default
		__ticks_dc = (uint32_t)(ceil(fabs(__tmp)));
	#endif

	__builtin_avr_delay_cycles(__ticks_dc);
     8b8:	2f ef       	ldi	r18, 0xFF	; 255
     8ba:	8b e7       	ldi	r24, 0x7B	; 123
     8bc:	92 e9       	ldi	r25, 0x92	; 146
     8be:	21 50       	subi	r18, 0x01	; 1
     8c0:	80 40       	sbci	r24, 0x00	; 0
     8c2:	90 40       	sbci	r25, 0x00	; 0
     8c4:	e1 f7       	brne	.-8      	; 0x8be <__stack+0x5f>
     8c6:	00 c0       	rjmp	.+0      	; 0x8c8 <__stack+0x69>
     8c8:	00 00       	nop
	_delay_ms(3000);
	set_status(eStatus_Warning);
     8ca:	81 e0       	ldi	r24, 0x01	; 1
     8cc:	0e 94 fd 08 	call	0x11fa	; 0x11fa <_Z10set_status7ESTATUS>
	vWriteChar(nDisplayPuffer.z1,"Selbsttest");
     8d0:	6f e7       	ldi	r22, 0x7F	; 127
     8d2:	70 e0       	ldi	r23, 0x00	; 0
     8d4:	82 e1       	ldi	r24, 0x12	; 18
     8d6:	96 e0       	ldi	r25, 0x06	; 6
     8d8:	0e 94 0d 0b 	call	0x161a	; 0x161a <_Z10vWriteCharPcPKc>
	vWriteChar(nDisplayPuffer.z2,"bitte warten...");
     8dc:	6a e8       	ldi	r22, 0x8A	; 138
     8de:	70 e0       	ldi	r23, 0x00	; 0
     8e0:	83 e2       	ldi	r24, 0x23	; 35
     8e2:	96 e0       	ldi	r25, 0x06	; 6
     8e4:	0e 94 0d 0b 	call	0x161a	; 0x161a <_Z10vWriteCharPcPKc>
	vUpdateDisplay();
     8e8:	0e 94 fa 0a 	call	0x15f4	; 0x15f4 <_Z14vUpdateDisplayv>
     8ec:	af ef       	ldi	r26, 0xFF	; 255
     8ee:	bb e7       	ldi	r27, 0x7B	; 123
     8f0:	e2 e9       	ldi	r30, 0x92	; 146
     8f2:	a1 50       	subi	r26, 0x01	; 1
     8f4:	b0 40       	sbci	r27, 0x00	; 0
     8f6:	e0 40       	sbci	r30, 0x00	; 0
     8f8:	e1 f7       	brne	.-8      	; 0x8f2 <__stack+0x93>
     8fa:	00 c0       	rjmp	.+0      	; 0x8fc <__stack+0x9d>
     8fc:	00 00       	nop
	_delay_ms(3000);
	hw_POST();
     8fe:	0e 94 19 09 	call	0x1232	; 0x1232 <_Z7hw_POSTv>
	vUpdateDisplay();
     902:	0e 94 fa 0a 	call	0x15f4	; 0x15f4 <_Z14vUpdateDisplayv>
	vSoftPWM_init();
     906:	0e 94 10 0a 	call	0x1420	; 0x1420 <_Z13vSoftPWM_initv>
     90a:	ff ef       	ldi	r31, 0xFF	; 255
     90c:	2b e7       	ldi	r18, 0x7B	; 123
     90e:	82 e9       	ldi	r24, 0x92	; 146
     910:	f1 50       	subi	r31, 0x01	; 1
     912:	20 40       	sbci	r18, 0x00	; 0
     914:	80 40       	sbci	r24, 0x00	; 0
     916:	e1 f7       	brne	.-8      	; 0x910 <__stack+0xb1>
     918:	00 c0       	rjmp	.+0      	; 0x91a <__stack+0xbb>
     91a:	00 00       	nop
	_delay_ms(3000);
	systick_timer_init();
     91c:	0e 94 b7 08 	call	0x116e	; 0x116e <_Z18systick_timer_initv>
	vSetSound_ms(25);
     920:	89 e1       	ldi	r24, 0x19	; 25
     922:	90 e0       	ldi	r25, 0x00	; 0
     924:	0e 94 0b 0a 	call	0x1416	; 0x1416 <_Z12vSetSound_msj>
		0x12,
		0x12,
		0x09,
		0x00,
		0x1f
	};
     928:	88 e0       	ldi	r24, 0x08	; 8
     92a:	e3 e6       	ldi	r30, 0x63	; 99
     92c:	f0 e0       	ldi	r31, 0x00	; 0
     92e:	de 01       	movw	r26, r28
     930:	11 96       	adiw	r26, 0x01	; 1
     932:	01 90       	ld	r0, Z+
     934:	0d 92       	st	X+, r0
     936:	8a 95       	dec	r24
     938:	e1 f7       	brne	.-8      	; 0x932 <__stack+0xd3>
	lcd_generatechar(1,ZeichenHeizen);
     93a:	be 01       	movw	r22, r28
     93c:	6f 5f       	subi	r22, 0xFF	; 255
     93e:	7f 4f       	sbci	r23, 0xFF	; 255
     940:	81 e0       	ldi	r24, 0x01	; 1
     942:	0e 94 e0 0a 	call	0x15c0	; 0x15c0 <_Z16lcd_generatecharhPKh>
	
	vActionExec(eAction_SelectGrundMenue,0);
     946:	60 e0       	ldi	r22, 0x00	; 0
     948:	70 e0       	ldi	r23, 0x00	; 0
     94a:	81 e0       	ldi	r24, 0x01	; 1
     94c:	0e 94 5c 0f 	call	0x1eb8	; 0x1eb8 <_Z11vActionExeccj>
	vAnzeigeBearbeiten();
     950:	0e 94 ec 0b 	call	0x17d8	; 0x17d8 <_Z18vAnzeigeBearbeitenv>
	
	t_param1.sensor = DS1820_SENS1;
     954:	ea ef       	ldi	r30, 0xFA	; 250
     956:	f5 e0       	ldi	r31, 0x05	; 5
     958:	10 86       	std	Z+8, r1	; 0x08
	t_param1.t_hysterese = &pwParameterSave[ePara_Hysterese1];
     95a:	8a e5       	ldi	r24, 0x5A	; 90
     95c:	95 e0       	ldi	r25, 0x05	; 5
     95e:	95 83       	std	Z+5, r25	; 0x05
     960:	84 83       	std	Z+4, r24	; 0x04
	t_param1.t_offset = &pwParameterSave[ePara_Offset1];
     962:	8e e5       	ldi	r24, 0x5E	; 94
     964:	95 e0       	ldi	r25, 0x05	; 5
     966:	93 83       	std	Z+3, r25	; 0x03
     968:	82 83       	std	Z+2, r24	; 0x02
	t_param1.t_sollwert = &pwParameterSave[ePara_Sollwert1];
     96a:	86 e5       	ldi	r24, 0x56	; 86
     96c:	95 e0       	ldi	r25, 0x05	; 5
     96e:	91 83       	std	Z+1, r25	; 0x01
     970:	80 83       	st	Z, r24
	t_param1.t_cooldown = &pwParameterSave[ePara_CoolDown1];
     972:	82 e6       	ldi	r24, 0x62	; 98
     974:	95 e0       	ldi	r25, 0x05	; 5
     976:	97 83       	std	Z+7, r25	; 0x07
     978:	86 83       	std	Z+6, r24	; 0x06
	t_param1.t_istwert = &Temp1;
     97a:	87 ed       	ldi	r24, 0xD7	; 215
     97c:	95 e0       	ldi	r25, 0x05	; 5
     97e:	92 87       	std	Z+10, r25	; 0x0a
     980:	81 87       	std	Z+9, r24	; 0x09
	t_param1.channel = e_softPWM_ch1;
     982:	13 86       	std	Z+11, r1	; 0x0b
	t_param1.pid_para = &pid_ch1;
     984:	8d eb       	ldi	r24, 0xBD	; 189
     986:	95 e0       	ldi	r25, 0x05	; 5
     988:	95 87       	std	Z+13, r25	; 0x0d
     98a:	84 87       	std	Z+12, r24	; 0x0c
	
	t_param2.sensor = DS1820_SENS2;
     98c:	ea ee       	ldi	r30, 0xEA	; 234
     98e:	f5 e0       	ldi	r31, 0x05	; 5
     990:	81 e0       	ldi	r24, 0x01	; 1
     992:	80 87       	std	Z+8, r24	; 0x08
	t_param2.t_hysterese = &pwParameterSave[ePara_Hysterese2];
     994:	2c e5       	ldi	r18, 0x5C	; 92
     996:	35 e0       	ldi	r19, 0x05	; 5
     998:	35 83       	std	Z+5, r19	; 0x05
     99a:	24 83       	std	Z+4, r18	; 0x04
	t_param2.t_offset = &pwParameterSave[ePara_Offset2];
     99c:	20 e6       	ldi	r18, 0x60	; 96
     99e:	35 e0       	ldi	r19, 0x05	; 5
     9a0:	33 83       	std	Z+3, r19	; 0x03
     9a2:	22 83       	std	Z+2, r18	; 0x02
	t_param2.t_sollwert = &pwParameterSave[ePara_Sollwert2];
     9a4:	28 e5       	ldi	r18, 0x58	; 88
     9a6:	35 e0       	ldi	r19, 0x05	; 5
     9a8:	31 83       	std	Z+1, r19	; 0x01
     9aa:	20 83       	st	Z, r18
	t_param2.t_cooldown = &pwParameterSave[ePara_CoolDown2];
     9ac:	24 e6       	ldi	r18, 0x64	; 100
     9ae:	35 e0       	ldi	r19, 0x05	; 5
     9b0:	37 83       	std	Z+7, r19	; 0x07
     9b2:	26 83       	std	Z+6, r18	; 0x06
	t_param2.t_istwert = &Temp2;
     9b4:	25 ed       	ldi	r18, 0xD5	; 213
     9b6:	35 e0       	ldi	r19, 0x05	; 5
     9b8:	32 87       	std	Z+10, r19	; 0x0a
     9ba:	21 87       	std	Z+9, r18	; 0x09
	t_param2.channel = e_softPWM_ch2;
     9bc:	83 87       	std	Z+11, r24	; 0x0b
	t_param2.pid_para = &pid_ch2;
     9be:	86 ea       	ldi	r24, 0xA6	; 166
     9c0:	95 e0       	ldi	r25, 0x05	; 5
     9c2:	95 87       	std	Z+13, r25	; 0x0d
     9c4:	84 87       	std	Z+12, r24	; 0x0c
     9c6:	0f 2e       	mov	r0, r31
     9c8:	f0 e0       	ldi	r31, 0x00	; 0
     9ca:	ef 2e       	mov	r14, r31
     9cc:	f0 e0       	ldi	r31, 0x00	; 0
     9ce:	ff 2e       	mov	r15, r31
     9d0:	f0 2d       	mov	r31, r0
     9d2:	0e e7       	ldi	r16, 0x7E	; 126
     9d4:	15 e0       	ldi	r17, 0x05	; 5
     9d6:	0f 2e       	mov	r0, r31
     9d8:	f6 e5       	ldi	r31, 0x56	; 86
     9da:	af 2e       	mov	r10, r31
     9dc:	f5 e0       	ldi	r31, 0x05	; 5
     9de:	bf 2e       	mov	r11, r31
     9e0:	f0 2d       	mov	r31, r0
     9e2:	0f 2e       	mov	r0, r31
     9e4:	fa e9       	ldi	r31, 0x9A	; 154
     9e6:	cf 2e       	mov	r12, r31
     9e8:	f0 e0       	ldi	r31, 0x00	; 0
     9ea:	df 2e       	mov	r13, r31
     9ec:	f0 2d       	mov	r31, r0
     9ee:	0f 2e       	mov	r0, r31
     9f0:	f6 ea       	ldi	r31, 0xA6	; 166
     9f2:	8f 2e       	mov	r8, r31
     9f4:	f5 e0       	ldi	r31, 0x05	; 5
     9f6:	9f 2e       	mov	r9, r31
     9f8:	f0 2d       	mov	r31, r0
	
	for(int i = 0; i < ePara_Last; ++i)
	{
		pwParameter[i] =  eeprom_read_word(&pwParameterEprom[i]);
     9fa:	c7 01       	movw	r24, r14
     9fc:	0e 94 79 18 	call	0x30f2	; 0x30f2 <eeprom_read_word>
     a00:	f8 01       	movw	r30, r16
     a02:	91 83       	std	Z+1, r25	; 0x01
     a04:	80 83       	st	Z, r24
		if(pwParameter[i] == 0xFFFF) pwParameter[i] = pwParameterDef[i];
     a06:	01 96       	adiw	r24, 0x01	; 1
     a08:	29 f4       	brne	.+10     	; 0xa14 <__stack+0x1b5>
     a0a:	d6 01       	movw	r26, r12
     a0c:	8d 91       	ld	r24, X+
     a0e:	9c 91       	ld	r25, X
     a10:	91 83       	std	Z+1, r25	; 0x01
     a12:	80 83       	st	Z, r24
     a14:	0e 5f       	subi	r16, 0xFE	; 254
     a16:	1f 4f       	sbci	r17, 0xFF	; 255
		
		pwParameterSave[i] = pwParameter[i];
     a18:	80 81       	ld	r24, Z
     a1a:	91 81       	ldd	r25, Z+1	; 0x01
     a1c:	f5 01       	movw	r30, r10
     a1e:	81 93       	st	Z+, r24
     a20:	91 93       	st	Z+, r25
     a22:	5f 01       	movw	r10, r30
     a24:	f2 e0       	ldi	r31, 0x02	; 2
     a26:	ef 0e       	add	r14, r31
     a28:	f1 1c       	adc	r15, r1
     a2a:	22 e0       	ldi	r18, 0x02	; 2
     a2c:	c2 0e       	add	r12, r18
     a2e:	d1 1c       	adc	r13, r1
	t_param2.t_cooldown = &pwParameterSave[ePara_CoolDown2];
	t_param2.t_istwert = &Temp2;
	t_param2.channel = e_softPWM_ch2;
	t_param2.pid_para = &pid_ch2;
	
	for(int i = 0; i < ePara_Last; ++i)
     a30:	08 15       	cp	r16, r8
     a32:	19 05       	cpc	r17, r9
     a34:	11 f7       	brne	.-60     	; 0x9fa <__stack+0x19b>
		pwParameter[i] =  eeprom_read_word(&pwParameterEprom[i]);
		if(pwParameter[i] == 0xFFFF) pwParameter[i] = pwParameterDef[i];
		
		pwParameterSave[i] = pwParameter[i];
	}
	Temp1 = 0;
     a36:	10 92 d8 05 	sts	0x05D8, r1	; 0x8005d8 <Temp1+0x1>
     a3a:	10 92 d7 05 	sts	0x05D7, r1	; 0x8005d7 <Temp1>
	Temp2 = 0;
     a3e:	10 92 d6 05 	sts	0x05D6, r1	; 0x8005d6 <Temp2+0x1>
     a42:	10 92 d5 05 	sts	0x05D5, r1	; 0x8005d5 <Temp2>
	disp = 0;
     a46:	10 92 d4 05 	sts	0x05D4, r1	; 0x8005d4 <disp>
	
	pid_reset(&pid_ch1);
     a4a:	8d eb       	ldi	r24, 0xBD	; 189
     a4c:	95 e0       	ldi	r25, 0x05	; 5
     a4e:	0e 94 71 13 	call	0x26e2	; 0x26e2 <_Z9pid_resetP8PID_para>
	pid_init(&pid_ch1, &pwParameterSave[ePara_Regelparam_Kp1], &pwParameterSave[ePara_Regelparam_Ki1], &pwParameterSave[ePara_Regelparam_Kd1]);
     a52:	26 e7       	ldi	r18, 0x76	; 118
     a54:	35 e0       	ldi	r19, 0x05	; 5
     a56:	44 e7       	ldi	r20, 0x74	; 116
     a58:	55 e0       	ldi	r21, 0x05	; 5
     a5a:	62 e7       	ldi	r22, 0x72	; 114
     a5c:	75 e0       	ldi	r23, 0x05	; 5
     a5e:	8d eb       	ldi	r24, 0xBD	; 189
     a60:	95 e0       	ldi	r25, 0x05	; 5
     a62:	0e 94 5b 13 	call	0x26b6	; 0x26b6 <_Z8pid_initP8PID_paraPiS1_S1_>
	
	pid_reset(&pid_ch2);
     a66:	86 ea       	ldi	r24, 0xA6	; 166
     a68:	95 e0       	ldi	r25, 0x05	; 5
     a6a:	0e 94 71 13 	call	0x26e2	; 0x26e2 <_Z9pid_resetP8PID_para>
	pid_init(&pid_ch2, &pwParameterSave[ePara_Regelparam_Kp2], &pwParameterSave[ePara_Regelparam_Ki2], &pwParameterSave[ePara_Regelparam_Kd2]);
     a6e:	2c e7       	ldi	r18, 0x7C	; 124
     a70:	35 e0       	ldi	r19, 0x05	; 5
     a72:	4a e7       	ldi	r20, 0x7A	; 122
     a74:	55 e0       	ldi	r21, 0x05	; 5
     a76:	68 e7       	ldi	r22, 0x78	; 120
     a78:	75 e0       	ldi	r23, 0x05	; 5
     a7a:	86 ea       	ldi	r24, 0xA6	; 166
     a7c:	95 e0       	ldi	r25, 0x05	; 5
     a7e:	0e 94 5b 13 	call	0x26b6	; 0x26b6 <_Z8pid_initP8PID_paraPiS1_S1_>
	
	sei();
     a82:	78 94       	sei
}
     a84:	28 96       	adiw	r28, 0x08	; 8
     a86:	0f b6       	in	r0, 0x3f	; 63
     a88:	f8 94       	cli
     a8a:	de bf       	out	0x3e, r29	; 62
     a8c:	0f be       	out	0x3f, r0	; 63
     a8e:	cd bf       	out	0x3d, r28	; 61
     a90:	df 91       	pop	r29
     a92:	cf 91       	pop	r28
     a94:	1f 91       	pop	r17
     a96:	0f 91       	pop	r16
     a98:	ff 90       	pop	r15
     a9a:	ef 90       	pop	r14
     a9c:	df 90       	pop	r13
     a9e:	cf 90       	pop	r12
     aa0:	bf 90       	pop	r11
     aa2:	af 90       	pop	r10
     aa4:	9f 90       	pop	r9
     aa6:	8f 90       	pop	r8
     aa8:	08 95       	ret

00000aaa <_Z9vSaveParai>:
/****************************** Globale Funktionen ***********************/
/*************************************************************************/

/**************************** Parameter Speichern ***********************/
void vSavePara(int16_t cPara)
{
     aaa:	0f 93       	push	r16
     aac:	1f 93       	push	r17
     aae:	cf 93       	push	r28
     ab0:	df 93       	push	r29
	eeprom_write_word (&pwParameterEprom[cPara], pwParameter[cPara]);
     ab2:	ec 01       	movw	r28, r24
     ab4:	cc 0f       	add	r28, r28
     ab6:	dd 1f       	adc	r29, r29
     ab8:	8e 01       	movw	r16, r28
     aba:	02 58       	subi	r16, 0x82	; 130
     abc:	1a 4f       	sbci	r17, 0xFA	; 250
     abe:	f8 01       	movw	r30, r16
     ac0:	60 81       	ld	r22, Z
     ac2:	71 81       	ldd	r23, Z+1	; 0x01
     ac4:	ce 01       	movw	r24, r28
     ac6:	80 50       	subi	r24, 0x00	; 0
     ac8:	90 40       	sbci	r25, 0x00	; 0
     aca:	0e 94 7f 18 	call	0x30fe	; 0x30fe <eeprom_write_word>
	pwParameterSave[cPara] = pwParameter[cPara];
     ace:	ca 5a       	subi	r28, 0xAA	; 170
     ad0:	da 4f       	sbci	r29, 0xFA	; 250
     ad2:	f8 01       	movw	r30, r16
     ad4:	80 81       	ld	r24, Z
     ad6:	91 81       	ldd	r25, Z+1	; 0x01
     ad8:	99 83       	std	Y+1, r25	; 0x01
     ada:	88 83       	st	Y, r24
}
     adc:	df 91       	pop	r29
     ade:	cf 91       	pop	r28
     ae0:	1f 91       	pop	r17
     ae2:	0f 91       	pop	r16
     ae4:	08 95       	ret

00000ae6 <_Z13vSaveParaWertii>:


/**************************** Parameter Speichern ***********************/
void vSaveParaWert(int16_t cPara,int16_t wWert)
{
	pwParameter[cPara] = wWert;
     ae6:	88 0f       	add	r24, r24
     ae8:	99 1f       	adc	r25, r25
     aea:	fc 01       	movw	r30, r24
     aec:	e2 58       	subi	r30, 0x82	; 130
     aee:	fa 4f       	sbci	r31, 0xFA	; 250
     af0:	71 83       	std	Z+1, r23	; 0x01
     af2:	60 83       	st	Z, r22
	pwParameterSave[cPara] = wWert;
     af4:	fc 01       	movw	r30, r24
     af6:	ea 5a       	subi	r30, 0xAA	; 170
     af8:	fa 4f       	sbci	r31, 0xFA	; 250
     afa:	71 83       	std	Z+1, r23	; 0x01
     afc:	60 83       	st	Z, r22
	eeprom_write_word (&pwParameterEprom[cPara], wWert);
     afe:	80 50       	subi	r24, 0x00	; 0
     b00:	90 40       	sbci	r25, 0x00	; 0
     b02:	0e 94 7f 18 	call	0x30fe	; 0x30fe <eeprom_write_word>
     b06:	08 95       	ret

00000b08 <main>:
/*************************************************************************/
/****************************** Main Schleife ****************************/
/*************************************************************************/
int main(void)
{	
	init();
     b08:	0e 94 2e 04 	call	0x85c	; 0x85c <_Z4initv>

    while(1)
    {
		if(b_tempupdate1){
     b0c:	80 91 55 05 	lds	r24, 0x0555	; 0x800555 <b_tempupdate1>
     b10:	88 23       	and	r24, r24
     b12:	21 f1       	breq	.+72     	; 0xb5c <main+0x54>
			b_tempupdate1 = 0;
     b14:	10 92 55 05 	sts	0x0555, r1	; 0x800555 <b_tempupdate1>
			temp_update(t_param1);		
     b18:	a0 90 fa 05 	lds	r10, 0x05FA	; 0x8005fa <t_param1>
     b1c:	b0 90 fb 05 	lds	r11, 0x05FB	; 0x8005fb <t_param1+0x1>
     b20:	c0 90 fc 05 	lds	r12, 0x05FC	; 0x8005fc <t_param1+0x2>
     b24:	d0 90 fd 05 	lds	r13, 0x05FD	; 0x8005fd <t_param1+0x3>
     b28:	e0 90 fe 05 	lds	r14, 0x05FE	; 0x8005fe <t_param1+0x4>
     b2c:	f0 90 ff 05 	lds	r15, 0x05FF	; 0x8005ff <t_param1+0x5>
     b30:	00 91 00 06 	lds	r16, 0x0600	; 0x800600 <t_param1+0x6>
     b34:	10 91 01 06 	lds	r17, 0x0601	; 0x800601 <t_param1+0x7>
     b38:	20 91 02 06 	lds	r18, 0x0602	; 0x800602 <t_param1+0x8>
     b3c:	30 91 03 06 	lds	r19, 0x0603	; 0x800603 <t_param1+0x9>
     b40:	40 91 04 06 	lds	r20, 0x0604	; 0x800604 <t_param1+0xa>
     b44:	50 91 05 06 	lds	r21, 0x0605	; 0x800605 <t_param1+0xb>
     b48:	60 91 06 06 	lds	r22, 0x0606	; 0x800606 <t_param1+0xc>
     b4c:	70 91 07 06 	lds	r23, 0x0607	; 0x800607 <t_param1+0xd>
     b50:	80 91 08 06 	lds	r24, 0x0608	; 0x800608 <t_param1+0xe>
     b54:	90 91 09 06 	lds	r25, 0x0609	; 0x800609 <t_param1+0xf>
     b58:	0e 94 9e 02 	call	0x53c	; 0x53c <_Z11temp_update7t_param>
		}
		if(b_tempupdate2){
     b5c:	80 91 54 05 	lds	r24, 0x0554	; 0x800554 <b_tempupdate2>
     b60:	88 23       	and	r24, r24
     b62:	21 f1       	breq	.+72     	; 0xbac <main+0xa4>
			b_tempupdate2 = 0;
     b64:	10 92 54 05 	sts	0x0554, r1	; 0x800554 <b_tempupdate2>
			temp_update(t_param2);	
     b68:	a0 90 ea 05 	lds	r10, 0x05EA	; 0x8005ea <t_param2>
     b6c:	b0 90 eb 05 	lds	r11, 0x05EB	; 0x8005eb <t_param2+0x1>
     b70:	c0 90 ec 05 	lds	r12, 0x05EC	; 0x8005ec <t_param2+0x2>
     b74:	d0 90 ed 05 	lds	r13, 0x05ED	; 0x8005ed <t_param2+0x3>
     b78:	e0 90 ee 05 	lds	r14, 0x05EE	; 0x8005ee <t_param2+0x4>
     b7c:	f0 90 ef 05 	lds	r15, 0x05EF	; 0x8005ef <t_param2+0x5>
     b80:	00 91 f0 05 	lds	r16, 0x05F0	; 0x8005f0 <t_param2+0x6>
     b84:	10 91 f1 05 	lds	r17, 0x05F1	; 0x8005f1 <t_param2+0x7>
     b88:	20 91 f2 05 	lds	r18, 0x05F2	; 0x8005f2 <t_param2+0x8>
     b8c:	30 91 f3 05 	lds	r19, 0x05F3	; 0x8005f3 <t_param2+0x9>
     b90:	40 91 f4 05 	lds	r20, 0x05F4	; 0x8005f4 <t_param2+0xa>
     b94:	50 91 f5 05 	lds	r21, 0x05F5	; 0x8005f5 <t_param2+0xb>
     b98:	60 91 f6 05 	lds	r22, 0x05F6	; 0x8005f6 <t_param2+0xc>
     b9c:	70 91 f7 05 	lds	r23, 0x05F7	; 0x8005f7 <t_param2+0xd>
     ba0:	80 91 f8 05 	lds	r24, 0x05F8	; 0x8005f8 <t_param2+0xe>
     ba4:	90 91 f9 05 	lds	r25, 0x05F9	; 0x8005f9 <t_param2+0xf>
     ba8:	0e 94 9e 02 	call	0x53c	; 0x53c <_Z11temp_update7t_param>
		}
		if(b_hygroupdate1)
     bac:	80 91 53 05 	lds	r24, 0x0553	; 0x800553 <b_hygroupdate1>
     bb0:	88 23       	and	r24, r24
     bb2:	41 f0       	breq	.+16     	; 0xbc4 <main+0xbc>
		{
			hygro_update(AM2303_HYG_1, &Hygrometer_1);
     bb4:	61 ee       	ldi	r22, 0xE1	; 225
     bb6:	75 e0       	ldi	r23, 0x05	; 5
     bb8:	81 e0       	ldi	r24, 0x01	; 1
     bba:	0e 94 1e 04 	call	0x83c	; 0x83c <_Z12hygro_updatehP11AM2303_Data>
			b_hygroupdate1 = 0;
     bbe:	10 92 53 05 	sts	0x0553, r1	; 0x800553 <b_hygroupdate1>
			sei();
     bc2:	78 94       	sei
		}
		if(b_hygroupdate2)
     bc4:	80 91 52 05 	lds	r24, 0x0552	; 0x800552 <b_hygroupdate2>
     bc8:	88 23       	and	r24, r24
     bca:	41 f0       	breq	.+16     	; 0xbdc <main+0xd4>
		{
			hygro_update(AM2303_HYG_2, &Hygrometer_2);
     bcc:	69 ed       	ldi	r22, 0xD9	; 217
     bce:	75 e0       	ldi	r23, 0x05	; 5
     bd0:	80 e0       	ldi	r24, 0x00	; 0
     bd2:	0e 94 1e 04 	call	0x83c	; 0x83c <_Z12hygro_updatehP11AM2303_Data>
			b_hygroupdate2 = 0;
     bd6:	10 92 52 05 	sts	0x0552, r1	; 0x800552 <b_hygroupdate2>
			sei();
     bda:	78 94       	sei
		}
		if (ucUpdateDisplay != 0)
     bdc:	80 91 e9 05 	lds	r24, 0x05E9	; 0x8005e9 <ucUpdateDisplay>
     be0:	88 23       	and	r24, r24
     be2:	21 f0       	breq	.+8      	; 0xbec <main+0xe4>
		{
			vAnzeigeBearbeiten();
     be4:	0e 94 ec 0b 	call	0x17d8	; 0x17d8 <_Z18vAnzeigeBearbeitenv>
			vUpdateDisplay();
     be8:	0e 94 fa 0a 	call	0x15f4	; 0x15f4 <_Z14vUpdateDisplayv>
		}
		if (b_updateparam)
     bec:	80 91 51 05 	lds	r24, 0x0551	; 0x800551 <b_updateparam>
     bf0:	88 23       	and	r24, r24
     bf2:	41 f0       	breq	.+16     	; 0xc04 <main+0xfc>
		{
			vUpdateParam(&t_param1, &t_param2);
     bf4:	6a ee       	ldi	r22, 0xEA	; 234
     bf6:	75 e0       	ldi	r23, 0x05	; 5
     bf8:	8a ef       	ldi	r24, 0xFA	; 250
     bfa:	95 e0       	ldi	r25, 0x05	; 5
     bfc:	0e 94 58 03 	call	0x6b0	; 0x6b0 <_Z12vUpdateParamP7t_paramS0_>
			b_updateparam = false;
     c00:	10 92 51 05 	sts	0x0551, r1	; 0x800551 <b_updateparam>
		}
		if (b_checkplausibility)
     c04:	80 91 50 05 	lds	r24, 0x0550	; 0x800550 <b_checkplausibility>
     c08:	88 23       	and	r24, r24
     c0a:	09 f4       	brne	.+2      	; 0xc0e <main+0x106>
     c0c:	7f cf       	rjmp	.-258    	; 0xb0c <main+0x4>
		{
			checkplausibility(&t_param1, Hygrometer_1);
     c0e:	00 91 e1 05 	lds	r16, 0x05E1	; 0x8005e1 <Hygrometer_1>
     c12:	10 91 e2 05 	lds	r17, 0x05E2	; 0x8005e2 <Hygrometer_1+0x1>
     c16:	20 91 e3 05 	lds	r18, 0x05E3	; 0x8005e3 <Hygrometer_1+0x2>
     c1a:	30 91 e4 05 	lds	r19, 0x05E4	; 0x8005e4 <Hygrometer_1+0x3>
     c1e:	40 91 e5 05 	lds	r20, 0x05E5	; 0x8005e5 <Hygrometer_1+0x4>
     c22:	50 91 e6 05 	lds	r21, 0x05E6	; 0x8005e6 <Hygrometer_1+0x5>
     c26:	60 91 e7 05 	lds	r22, 0x05E7	; 0x8005e7 <Hygrometer_1+0x6>
     c2a:	70 91 e8 05 	lds	r23, 0x05E8	; 0x8005e8 <Hygrometer_1+0x7>
     c2e:	8a ef       	ldi	r24, 0xFA	; 250
     c30:	95 e0       	ldi	r25, 0x05	; 5
     c32:	0e 94 7c 03 	call	0x6f8	; 0x6f8 <_Z17checkplausibilityP7t_param11AM2303_Data>
			checkplausibility(&t_param2, Hygrometer_2);
     c36:	00 91 d9 05 	lds	r16, 0x05D9	; 0x8005d9 <Hygrometer_2>
     c3a:	10 91 da 05 	lds	r17, 0x05DA	; 0x8005da <Hygrometer_2+0x1>
     c3e:	20 91 db 05 	lds	r18, 0x05DB	; 0x8005db <Hygrometer_2+0x2>
     c42:	30 91 dc 05 	lds	r19, 0x05DC	; 0x8005dc <Hygrometer_2+0x3>
     c46:	40 91 dd 05 	lds	r20, 0x05DD	; 0x8005dd <Hygrometer_2+0x4>
     c4a:	50 91 de 05 	lds	r21, 0x05DE	; 0x8005de <Hygrometer_2+0x5>
     c4e:	60 91 df 05 	lds	r22, 0x05DF	; 0x8005df <Hygrometer_2+0x6>
     c52:	70 91 e0 05 	lds	r23, 0x05E0	; 0x8005e0 <Hygrometer_2+0x7>
     c56:	8a ee       	ldi	r24, 0xEA	; 234
     c58:	95 e0       	ldi	r25, 0x05	; 5
     c5a:	0e 94 7c 03 	call	0x6f8	; 0x6f8 <_Z17checkplausibilityP7t_param11AM2303_Data>
			b_checkplausibility = false;
     c5e:	10 92 50 05 	sts	0x0550, r1	; 0x800550 <b_checkplausibility>
     c62:	54 cf       	rjmp	.-344    	; 0xb0c <main+0x4>

00000c64 <__vector_10>:
/*************************************************************************/


/********************Interrupt für Sensorbearbeitung**********************/
ISR(TIMER0_COMP_vect)
{
     c64:	1f 92       	push	r1
     c66:	0f 92       	push	r0
     c68:	0f b6       	in	r0, 0x3f	; 63
     c6a:	0f 92       	push	r0
     c6c:	11 24       	eor	r1, r1
     c6e:	8f 92       	push	r8
     c70:	9f 92       	push	r9
     c72:	af 92       	push	r10
     c74:	bf 92       	push	r11
     c76:	cf 92       	push	r12
     c78:	df 92       	push	r13
     c7a:	ef 92       	push	r14
     c7c:	ff 92       	push	r15
     c7e:	2f 93       	push	r18
     c80:	3f 93       	push	r19
     c82:	4f 93       	push	r20
     c84:	5f 93       	push	r21
     c86:	6f 93       	push	r22
     c88:	7f 93       	push	r23
     c8a:	8f 93       	push	r24
     c8c:	9f 93       	push	r25
     c8e:	af 93       	push	r26
     c90:	bf 93       	push	r27
     c92:	ef 93       	push	r30
     c94:	ff 93       	push	r31
	const uint32_t u32UpdateInterval = 500;
	cli();
     c96:	f8 94       	cli
	
	sys_time++;
     c98:	80 91 4c 05 	lds	r24, 0x054C	; 0x80054c <__data_end>
     c9c:	90 91 4d 05 	lds	r25, 0x054D	; 0x80054d <__data_end+0x1>
     ca0:	a0 91 4e 05 	lds	r26, 0x054E	; 0x80054e <__data_end+0x2>
     ca4:	b0 91 4f 05 	lds	r27, 0x054F	; 0x80054f <__data_end+0x3>
     ca8:	01 96       	adiw	r24, 0x01	; 1
     caa:	a1 1d       	adc	r26, r1
     cac:	b1 1d       	adc	r27, r1
     cae:	80 93 4c 05 	sts	0x054C, r24	; 0x80054c <__data_end>
     cb2:	90 93 4d 05 	sts	0x054D, r25	; 0x80054d <__data_end+0x1>
     cb6:	a0 93 4e 05 	sts	0x054E, r26	; 0x80054e <__data_end+0x2>
     cba:	b0 93 4f 05 	sts	0x054F, r27	; 0x80054f <__data_end+0x3>

	vCheckKeys();
     cbe:	0e 94 46 13 	call	0x268c	; 0x268c <_Z10vCheckKeysv>
	vBlControl();
     cc2:	0e 94 e2 08 	call	0x11c4	; 0x11c4 <_Z10vBlControlv>
	vSoundControl();
     cc6:	0e 94 fc 09 	call	0x13f8	; 0x13f8 <_Z13vSoundControlv>
	softPWM_update();
     cca:	0e 94 4e 15 	call	0x2a9c	; 0x2a9c <_Z14softPWM_updatev>
	sei();
     cce:	78 94       	sei
	
	if ((sys_time % u32UpdateInterval == 0) && (t_param2.status_soll != eHeat_NA)) b_tempupdate1 = true;
     cd0:	c0 90 4c 05 	lds	r12, 0x054C	; 0x80054c <__data_end>
     cd4:	d0 90 4d 05 	lds	r13, 0x054D	; 0x80054d <__data_end+0x1>
     cd8:	e0 90 4e 05 	lds	r14, 0x054E	; 0x80054e <__data_end+0x2>
     cdc:	f0 90 4f 05 	lds	r15, 0x054F	; 0x80054f <__data_end+0x3>
     ce0:	c7 01       	movw	r24, r14
     ce2:	b6 01       	movw	r22, r12
     ce4:	24 ef       	ldi	r18, 0xF4	; 244
     ce6:	31 e0       	ldi	r19, 0x01	; 1
     ce8:	40 e0       	ldi	r20, 0x00	; 0
     cea:	50 e0       	ldi	r21, 0x00	; 0
     cec:	0e 94 42 18 	call	0x3084	; 0x3084 <__udivmodsi4>
     cf0:	67 2b       	or	r22, r23
     cf2:	68 2b       	or	r22, r24
     cf4:	69 2b       	or	r22, r25
     cf6:	d9 f4       	brne	.+54     	; 0xd2e <__vector_10+0xca>
     cf8:	80 91 f9 05 	lds	r24, 0x05F9	; 0x8005f9 <t_param2+0xf>
     cfc:	86 30       	cpi	r24, 0x06	; 6
     cfe:	09 f4       	brne	.+2      	; 0xd02 <__vector_10+0x9e>
     d00:	91 c0       	rjmp	.+290    	; 0xe24 <__vector_10+0x1c0>
     d02:	81 e0       	ldi	r24, 0x01	; 1
     d04:	80 93 55 05 	sts	0x0555, r24	; 0x800555 <b_tempupdate1>
	if (((sys_time + 250) % u32UpdateInterval == 0) && (t_param2.status_soll != eHeat_NA)) b_tempupdate2 = true;
     d08:	c7 01       	movw	r24, r14
     d0a:	b6 01       	movw	r22, r12
     d0c:	66 50       	subi	r22, 0x06	; 6
     d0e:	7f 4f       	sbci	r23, 0xFF	; 255
     d10:	8f 4f       	sbci	r24, 0xFF	; 255
     d12:	9f 4f       	sbci	r25, 0xFF	; 255
     d14:	24 ef       	ldi	r18, 0xF4	; 244
     d16:	31 e0       	ldi	r19, 0x01	; 1
     d18:	40 e0       	ldi	r20, 0x00	; 0
     d1a:	50 e0       	ldi	r21, 0x00	; 0
     d1c:	0e 94 42 18 	call	0x3084	; 0x3084 <__udivmodsi4>
     d20:	4b 01       	movw	r8, r22
     d22:	5c 01       	movw	r10, r24
     d24:	67 2b       	or	r22, r23
     d26:	68 2b       	or	r22, r24
     d28:	69 2b       	or	r22, r25
     d2a:	b9 f0       	breq	.+46     	; 0xd5a <__vector_10+0xf6>
     d2c:	1c c0       	rjmp	.+56     	; 0xd66 <__vector_10+0x102>
     d2e:	c7 01       	movw	r24, r14
     d30:	b6 01       	movw	r22, r12
     d32:	66 50       	subi	r22, 0x06	; 6
     d34:	7f 4f       	sbci	r23, 0xFF	; 255
     d36:	8f 4f       	sbci	r24, 0xFF	; 255
     d38:	9f 4f       	sbci	r25, 0xFF	; 255
     d3a:	24 ef       	ldi	r18, 0xF4	; 244
     d3c:	31 e0       	ldi	r19, 0x01	; 1
     d3e:	40 e0       	ldi	r20, 0x00	; 0
     d40:	50 e0       	ldi	r21, 0x00	; 0
     d42:	0e 94 42 18 	call	0x3084	; 0x3084 <__udivmodsi4>
     d46:	4b 01       	movw	r8, r22
     d48:	5c 01       	movw	r10, r24
     d4a:	67 2b       	or	r22, r23
     d4c:	68 2b       	or	r22, r24
     d4e:	69 2b       	or	r22, r25
     d50:	51 f4       	brne	.+20     	; 0xd66 <__vector_10+0x102>
     d52:	80 91 f9 05 	lds	r24, 0x05F9	; 0x8005f9 <t_param2+0xf>
     d56:	86 30       	cpi	r24, 0x06	; 6
     d58:	31 f0       	breq	.+12     	; 0xd66 <__vector_10+0x102>
     d5a:	81 e0       	ldi	r24, 0x01	; 1
     d5c:	80 93 54 05 	sts	0x0554, r24	; 0x800554 <b_tempupdate2>
     d60:	81 2c       	mov	r8, r1
     d62:	91 2c       	mov	r9, r1
     d64:	54 01       	movw	r10, r8
	if ((sys_time + 100) % u32UpdateInterval == 0) b_hygroupdate1 = true;
     d66:	c7 01       	movw	r24, r14
     d68:	b6 01       	movw	r22, r12
     d6a:	6c 59       	subi	r22, 0x9C	; 156
     d6c:	7f 4f       	sbci	r23, 0xFF	; 255
     d6e:	8f 4f       	sbci	r24, 0xFF	; 255
     d70:	9f 4f       	sbci	r25, 0xFF	; 255
     d72:	24 ef       	ldi	r18, 0xF4	; 244
     d74:	31 e0       	ldi	r19, 0x01	; 1
     d76:	40 e0       	ldi	r20, 0x00	; 0
     d78:	50 e0       	ldi	r21, 0x00	; 0
     d7a:	0e 94 42 18 	call	0x3084	; 0x3084 <__udivmodsi4>
     d7e:	67 2b       	or	r22, r23
     d80:	68 2b       	or	r22, r24
     d82:	69 2b       	or	r22, r25
     d84:	19 f4       	brne	.+6      	; 0xd8c <__vector_10+0x128>
     d86:	81 e0       	ldi	r24, 0x01	; 1
     d88:	80 93 53 05 	sts	0x0553, r24	; 0x800553 <b_hygroupdate1>
	if ((sys_time + 150) % u32UpdateInterval == 0) b_hygroupdate2 = true;
     d8c:	c7 01       	movw	r24, r14
     d8e:	b6 01       	movw	r22, r12
     d90:	6a 56       	subi	r22, 0x6A	; 106
     d92:	7f 4f       	sbci	r23, 0xFF	; 255
     d94:	8f 4f       	sbci	r24, 0xFF	; 255
     d96:	9f 4f       	sbci	r25, 0xFF	; 255
     d98:	24 ef       	ldi	r18, 0xF4	; 244
     d9a:	31 e0       	ldi	r19, 0x01	; 1
     d9c:	40 e0       	ldi	r20, 0x00	; 0
     d9e:	50 e0       	ldi	r21, 0x00	; 0
     da0:	0e 94 42 18 	call	0x3084	; 0x3084 <__udivmodsi4>
     da4:	67 2b       	or	r22, r23
     da6:	68 2b       	or	r22, r24
     da8:	69 2b       	or	r22, r25
     daa:	19 f4       	brne	.+6      	; 0xdb2 <__vector_10+0x14e>
     dac:	81 e0       	ldi	r24, 0x01	; 1
     dae:	80 93 52 05 	sts	0x0552, r24	; 0x800552 <b_hygroupdate2>
	if ((sys_time + 200) % u32UpdateInterval == 0)
     db2:	c7 01       	movw	r24, r14
     db4:	b6 01       	movw	r22, r12
     db6:	68 53       	subi	r22, 0x38	; 56
     db8:	7f 4f       	sbci	r23, 0xFF	; 255
     dba:	8f 4f       	sbci	r24, 0xFF	; 255
     dbc:	9f 4f       	sbci	r25, 0xFF	; 255
     dbe:	24 ef       	ldi	r18, 0xF4	; 244
     dc0:	31 e0       	ldi	r19, 0x01	; 1
     dc2:	40 e0       	ldi	r20, 0x00	; 0
     dc4:	50 e0       	ldi	r21, 0x00	; 0
     dc6:	0e 94 42 18 	call	0x3084	; 0x3084 <__udivmodsi4>
     dca:	67 2b       	or	r22, r23
     dcc:	68 2b       	or	r22, r24
     dce:	69 2b       	or	r22, r25
     dd0:	89 f4       	brne	.+34     	; 0xdf4 <__vector_10+0x190>
	{
		b_checkplausibility = true;
     dd2:	81 e0       	ldi	r24, 0x01	; 1
     dd4:	80 93 50 05 	sts	0x0550, r24	; 0x800550 <b_checkplausibility>
		if ((disp == 0) && (t_param2.status_soll != eHeat_NA))
     dd8:	80 91 d4 05 	lds	r24, 0x05D4	; 0x8005d4 <disp>
     ddc:	81 11       	cpse	r24, r1
     dde:	08 c0       	rjmp	.+16     	; 0xdf0 <__vector_10+0x18c>
     de0:	80 91 f9 05 	lds	r24, 0x05F9	; 0x8005f9 <t_param2+0xf>
     de4:	86 30       	cpi	r24, 0x06	; 6
     de6:	21 f0       	breq	.+8      	; 0xdf0 <__vector_10+0x18c>
		{
			disp = 1;
     de8:	81 e0       	ldi	r24, 0x01	; 1
     dea:	80 93 d4 05 	sts	0x05D4, r24	; 0x8005d4 <disp>
     dee:	02 c0       	rjmp	.+4      	; 0xdf4 <__vector_10+0x190>
		}
		else
		{
			disp = 0;
     df0:	10 92 d4 05 	sts	0x05D4, r1	; 0x8005d4 <disp>
		}
	}
	if ((sys_time + 250) % u32UpdateInterval == 0)
     df4:	89 28       	or	r8, r9
     df6:	8a 28       	or	r8, r10
     df8:	8b 28       	or	r8, r11
     dfa:	19 f4       	brne	.+6      	; 0xe02 <__vector_10+0x19e>
	{
		b_updateparam = true;
     dfc:	81 e0       	ldi	r24, 0x01	; 1
     dfe:	80 93 51 05 	sts	0x0551, r24	; 0x800551 <b_updateparam>
	}
	if((sys_time / 100) > DAY) sys_time = 0;
     e02:	84 e6       	ldi	r24, 0x64	; 100
     e04:	c8 16       	cp	r12, r24
     e06:	86 ed       	ldi	r24, 0xD6	; 214
     e08:	d8 06       	cpc	r13, r24
     e0a:	83 e8       	ldi	r24, 0x83	; 131
     e0c:	e8 06       	cpc	r14, r24
     e0e:	f1 04       	cpc	r15, r1
     e10:	c0 f0       	brcs	.+48     	; 0xe42 <__vector_10+0x1de>
     e12:	10 92 4c 05 	sts	0x054C, r1	; 0x80054c <__data_end>
     e16:	10 92 4d 05 	sts	0x054D, r1	; 0x80054d <__data_end+0x1>
     e1a:	10 92 4e 05 	sts	0x054E, r1	; 0x80054e <__data_end+0x2>
     e1e:	10 92 4f 05 	sts	0x054F, r1	; 0x80054f <__data_end+0x3>
     e22:	0f c0       	rjmp	.+30     	; 0xe42 <__vector_10+0x1de>
	vSoundControl();
	softPWM_update();
	sei();
	
	if ((sys_time % u32UpdateInterval == 0) && (t_param2.status_soll != eHeat_NA)) b_tempupdate1 = true;
	if (((sys_time + 250) % u32UpdateInterval == 0) && (t_param2.status_soll != eHeat_NA)) b_tempupdate2 = true;
     e24:	c7 01       	movw	r24, r14
     e26:	b6 01       	movw	r22, r12
     e28:	66 50       	subi	r22, 0x06	; 6
     e2a:	7f 4f       	sbci	r23, 0xFF	; 255
     e2c:	8f 4f       	sbci	r24, 0xFF	; 255
     e2e:	9f 4f       	sbci	r25, 0xFF	; 255
     e30:	24 ef       	ldi	r18, 0xF4	; 244
     e32:	31 e0       	ldi	r19, 0x01	; 1
     e34:	40 e0       	ldi	r20, 0x00	; 0
     e36:	50 e0       	ldi	r21, 0x00	; 0
     e38:	0e 94 42 18 	call	0x3084	; 0x3084 <__udivmodsi4>
     e3c:	4b 01       	movw	r8, r22
     e3e:	5c 01       	movw	r10, r24
     e40:	92 cf       	rjmp	.-220    	; 0xd66 <__vector_10+0x102>
	if ((sys_time + 250) % u32UpdateInterval == 0)
	{
		b_updateparam = true;
	}
	if((sys_time / 100) > DAY) sys_time = 0;
     e42:	ff 91       	pop	r31
     e44:	ef 91       	pop	r30
     e46:	bf 91       	pop	r27
     e48:	af 91       	pop	r26
     e4a:	9f 91       	pop	r25
     e4c:	8f 91       	pop	r24
     e4e:	7f 91       	pop	r23
     e50:	6f 91       	pop	r22
     e52:	5f 91       	pop	r21
     e54:	4f 91       	pop	r20
     e56:	3f 91       	pop	r19
     e58:	2f 91       	pop	r18
     e5a:	ff 90       	pop	r15
     e5c:	ef 90       	pop	r14
     e5e:	df 90       	pop	r13
     e60:	cf 90       	pop	r12
     e62:	bf 90       	pop	r11
     e64:	af 90       	pop	r10
     e66:	9f 90       	pop	r9
     e68:	8f 90       	pop	r8
     e6a:	0f 90       	pop	r0
     e6c:	0f be       	out	0x3f, r0	; 63
     e6e:	0f 90       	pop	r0
     e70:	1f 90       	pop	r1
     e72:	18 95       	reti

00000e74 <_Z12ds1820_reseth>:
// Reset DS18S20
//----------------------------------------
uint8_t ds1820_reset(uint8_t used_pin)
{
  uint8_t err=100;
  DS1820_DDR |= 1<<used_pin;						// define as ouput
     e74:	97 b3       	in	r25, 0x17	; 23
     e76:	21 e0       	ldi	r18, 0x01	; 1
     e78:	30 e0       	ldi	r19, 0x00	; 0
     e7a:	08 2e       	mov	r0, r24
     e7c:	02 c0       	rjmp	.+4      	; 0xe82 <_Z12ds1820_reseth+0xe>
     e7e:	22 0f       	add	r18, r18
     e80:	33 1f       	adc	r19, r19
     e82:	0a 94       	dec	r0
     e84:	e2 f7       	brpl	.-8      	; 0xe7e <_Z12ds1820_reseth+0xa>
     e86:	92 2b       	or	r25, r18
     e88:	97 bb       	out	0x17, r25	; 23
  DS1820_PORT &= ~(1<<used_pin);					//Pull low
     e8a:	48 b3       	in	r20, 0x18	; 24
     e8c:	92 2f       	mov	r25, r18
     e8e:	90 95       	com	r25
     e90:	49 23       	and	r20, r25
     e92:	48 bb       	out	0x18, r20	; 24
	#else
		//round up by default
		__ticks_dc = (uint32_t)(ceil(fabs(__tmp)));
	#endif

	__builtin_avr_delay_cycles(__ticks_dc);
     e94:	ef e7       	ldi	r30, 0x7F	; 127
     e96:	f7 e0       	ldi	r31, 0x07	; 7
     e98:	31 97       	sbiw	r30, 0x01	; 1
     e9a:	f1 f7       	brne	.-4      	; 0xe98 <_Z12ds1820_reseth+0x24>
     e9c:	00 c0       	rjmp	.+0      	; 0xe9e <_Z12ds1820_reseth+0x2a>
     e9e:	00 00       	nop
  _delay_us(480);				;					// 480 us
  DS1820_DDR &= ~(1<<used_pin);						// define as input
     ea0:	47 b3       	in	r20, 0x17	; 23
     ea2:	94 23       	and	r25, r20
     ea4:	97 bb       	out	0x17, r25	; 23
  DS1820_PORT |= 1<<used_pin;						//Pullup on
     ea6:	98 b3       	in	r25, 0x18	; 24
     ea8:	92 2b       	or	r25, r18
     eaa:	98 bb       	out	0x18, r25	; 24
     eac:	e7 e0       	ldi	r30, 0x07	; 7
     eae:	f1 e0       	ldi	r31, 0x01	; 1
     eb0:	31 97       	sbiw	r30, 0x01	; 1
     eb2:	f1 f7       	brne	.-4      	; 0xeb0 <_Z12ds1820_reseth+0x3c>
     eb4:	00 c0       	rjmp	.+0      	; 0xeb6 <_Z12ds1820_reseth+0x42>
     eb6:	00 00       	nop
  _delay_us(66);										// 66 us
  err = (DS1820_PIN & (1<<used_pin)) >> used_pin;	// no presence detect --> err=1 otherwise err=0
     eb8:	96 b3       	in	r25, 0x16	; 22
     eba:	ef eb       	ldi	r30, 0xBF	; 191
     ebc:	f3 e0       	ldi	r31, 0x03	; 3
     ebe:	31 97       	sbiw	r30, 0x01	; 1
     ec0:	f1 f7       	brne	.-4      	; 0xebe <_Z12ds1820_reseth+0x4a>
     ec2:	00 c0       	rjmp	.+0      	; 0xec4 <_Z12ds1820_reseth+0x50>
     ec4:	00 00       	nop
  _delay_us(240);									// 240 us
  if( (DS1820_PIN & (1<<used_pin)) == 0 ){			// short circuit --> err=2
     ec6:	46 b3       	in	r20, 0x16	; 22
     ec8:	50 e0       	ldi	r21, 0x00	; 0
     eca:	08 2e       	mov	r0, r24
     ecc:	02 c0       	rjmp	.+4      	; 0xed2 <_Z12ds1820_reseth+0x5e>
     ece:	55 95       	asr	r21
     ed0:	47 95       	ror	r20
     ed2:	0a 94       	dec	r0
     ed4:	e2 f7       	brpl	.-8      	; 0xece <_Z12ds1820_reseth+0x5a>
     ed6:	40 ff       	sbrs	r20, 0
     ed8:	0c c0       	rjmp	.+24     	; 0xef2 <_Z12ds1820_reseth+0x7e>
  DS1820_PORT &= ~(1<<used_pin);					//Pull low
  _delay_us(480);				;					// 480 us
  DS1820_DDR &= ~(1<<used_pin);						// define as input
  DS1820_PORT |= 1<<used_pin;						//Pullup on
  _delay_us(66);										// 66 us
  err = (DS1820_PIN & (1<<used_pin)) >> used_pin;	// no presence detect --> err=1 otherwise err=0
     eda:	49 2f       	mov	r20, r25
     edc:	50 e0       	ldi	r21, 0x00	; 0
     ede:	24 23       	and	r18, r20
     ee0:	35 23       	and	r19, r21
     ee2:	a9 01       	movw	r20, r18
     ee4:	02 c0       	rjmp	.+4      	; 0xeea <_Z12ds1820_reseth+0x76>
     ee6:	55 95       	asr	r21
     ee8:	47 95       	ror	r20
     eea:	8a 95       	dec	r24
     eec:	e2 f7       	brpl	.-8      	; 0xee6 <_Z12ds1820_reseth+0x72>
     eee:	ca 01       	movw	r24, r20
     ef0:	08 95       	ret
  _delay_us(240);									// 240 us
  if( (DS1820_PIN & (1<<used_pin)) == 0 ){			// short circuit --> err=2
    err = 2;
     ef2:	82 e0       	ldi	r24, 0x02	; 2
	}
  return err;
}
     ef4:	08 95       	ret

00000ef6 <_Z13ds1820_wr_bithh>:
//-----------------------------------------
// Write one bit to DS18S20
//-----------------------------------------
void ds1820_wr_bit(uint8_t wrbit,uint8_t used_pin)
{
	if (wrbit ==0)	{
     ef6:	81 11       	cpse	r24, r1
     ef8:	21 c0       	rjmp	.+66     	; 0xf3c <_Z13ds1820_wr_bithh+0x46>
		DS1820_DDR |= 1<<used_pin;					// define as ouput
     efa:	27 b3       	in	r18, 0x17	; 23
     efc:	81 e0       	ldi	r24, 0x01	; 1
     efe:	90 e0       	ldi	r25, 0x00	; 0
     f00:	02 c0       	rjmp	.+4      	; 0xf06 <_Z13ds1820_wr_bithh+0x10>
     f02:	88 0f       	add	r24, r24
     f04:	99 1f       	adc	r25, r25
     f06:	6a 95       	dec	r22
     f08:	e2 f7       	brpl	.-8      	; 0xf02 <_Z13ds1820_wr_bithh+0xc>
     f0a:	92 2f       	mov	r25, r18
     f0c:	98 2b       	or	r25, r24
     f0e:	97 bb       	out	0x17, r25	; 23
  		DS1820_PORT &= ~(1<<used_pin);				//Pull low
     f10:	28 b3       	in	r18, 0x18	; 24
     f12:	98 2f       	mov	r25, r24
     f14:	90 95       	com	r25
     f16:	29 23       	and	r18, r25
     f18:	28 bb       	out	0x18, r18	; 24
     f1a:	ef ee       	ldi	r30, 0xEF	; 239
     f1c:	f0 e0       	ldi	r31, 0x00	; 0
     f1e:	31 97       	sbiw	r30, 0x01	; 1
     f20:	f1 f7       	brne	.-4      	; 0xf1e <_Z13ds1820_wr_bithh+0x28>
     f22:	00 c0       	rjmp	.+0      	; 0xf24 <_Z13ds1820_wr_bithh+0x2e>
     f24:	00 00       	nop
		_delay_us(60);
		DS1820_DDR &= ~(1<<used_pin);				// define as input
     f26:	27 b3       	in	r18, 0x17	; 23
     f28:	92 23       	and	r25, r18
     f2a:	97 bb       	out	0x17, r25	; 23
	  	DS1820_PORT |= 1<<used_pin;					//Pullup on
     f2c:	98 b3       	in	r25, 0x18	; 24
     f2e:	89 2b       	or	r24, r25
     f30:	88 bb       	out	0x18, r24	; 24
     f32:	f5 e1       	ldi	r31, 0x15	; 21
     f34:	fa 95       	dec	r31
     f36:	f1 f7       	brne	.-4      	; 0xf34 <_Z13ds1820_wr_bithh+0x3e>
     f38:	00 00       	nop
     f3a:	08 95       	ret
		_delay_us(4);
	}
	if (wrbit ==1)	{
     f3c:	81 30       	cpi	r24, 0x01	; 1
     f3e:	01 f5       	brne	.+64     	; 0xf80 <_Z13ds1820_wr_bithh+0x8a>
		DS1820_DDR |= 1<<used_pin;					// define as ouput
     f40:	27 b3       	in	r18, 0x17	; 23
     f42:	81 e0       	ldi	r24, 0x01	; 1
     f44:	90 e0       	ldi	r25, 0x00	; 0
     f46:	02 c0       	rjmp	.+4      	; 0xf4c <_Z13ds1820_wr_bithh+0x56>
     f48:	88 0f       	add	r24, r24
     f4a:	99 1f       	adc	r25, r25
     f4c:	6a 95       	dec	r22
     f4e:	e2 f7       	brpl	.-8      	; 0xf48 <_Z13ds1820_wr_bithh+0x52>
     f50:	92 2f       	mov	r25, r18
     f52:	98 2b       	or	r25, r24
     f54:	97 bb       	out	0x17, r25	; 23
  		DS1820_PORT &= ~(1<<used_pin);				//Pull low
     f56:	28 b3       	in	r18, 0x18	; 24
     f58:	98 2f       	mov	r25, r24
     f5a:	90 95       	com	r25
     f5c:	29 23       	and	r18, r25
     f5e:	28 bb       	out	0x18, r18	; 24
     f60:	25 e3       	ldi	r18, 0x35	; 53
     f62:	2a 95       	dec	r18
     f64:	f1 f7       	brne	.-4      	; 0xf62 <_Z13ds1820_wr_bithh+0x6c>
     f66:	00 00       	nop
		_delay_us(10);
		DS1820_DDR &= ~(1<<used_pin);				// define as input
     f68:	27 b3       	in	r18, 0x17	; 23
     f6a:	92 23       	and	r25, r18
     f6c:	97 bb       	out	0x17, r25	; 23
	  	DS1820_PORT |= 1<<used_pin;					//Pullup on
     f6e:	98 b3       	in	r25, 0x18	; 24
     f70:	89 2b       	or	r24, r25
     f72:	88 bb       	out	0x18, r24	; 24
     f74:	87 ed       	ldi	r24, 0xD7	; 215
     f76:	90 e0       	ldi	r25, 0x00	; 0
     f78:	01 97       	sbiw	r24, 0x01	; 1
     f7a:	f1 f7       	brne	.-4      	; 0xf78 <_Z13ds1820_wr_bithh+0x82>
     f7c:	00 c0       	rjmp	.+0      	; 0xf7e <_Z13ds1820_wr_bithh+0x88>
     f7e:	00 00       	nop
     f80:	08 95       	ret

00000f82 <_Z13ds1820_re_bith>:
// Read one bit from DS18S20
//-----------------------------------------
uint8_t ds1820_re_bit(uint8_t used_pin)
{
	uint8_t rebit;
	DS1820_DDR |= 1<<used_pin;							// define as ouput
     f82:	97 b3       	in	r25, 0x17	; 23
     f84:	21 e0       	ldi	r18, 0x01	; 1
     f86:	30 e0       	ldi	r19, 0x00	; 0
     f88:	08 2e       	mov	r0, r24
     f8a:	02 c0       	rjmp	.+4      	; 0xf90 <_Z13ds1820_re_bith+0xe>
     f8c:	22 0f       	add	r18, r18
     f8e:	33 1f       	adc	r19, r19
     f90:	0a 94       	dec	r0
     f92:	e2 f7       	brpl	.-8      	; 0xf8c <_Z13ds1820_re_bith+0xa>
     f94:	92 2b       	or	r25, r18
     f96:	97 bb       	out	0x17, r25	; 23
  	DS1820_PORT &= ~(1<<used_pin);						//Pull low
     f98:	48 b3       	in	r20, 0x18	; 24
     f9a:	92 2f       	mov	r25, r18
     f9c:	90 95       	com	r25
     f9e:	49 23       	and	r20, r25
     fa0:	48 bb       	out	0x18, r20	; 24
     fa2:	45 e0       	ldi	r20, 0x05	; 5
     fa4:	4a 95       	dec	r20
     fa6:	f1 f7       	brne	.-4      	; 0xfa4 <_Z13ds1820_re_bith+0x22>
     fa8:	00 00       	nop
	_delay_us(1);
	DS1820_DDR &= ~(1<<used_pin);						// define as input
     faa:	47 b3       	in	r20, 0x17	; 23
     fac:	94 23       	and	r25, r20
     fae:	97 bb       	out	0x17, r25	; 23
	DS1820_PORT |= 1<<used_pin;							//Pullup on
     fb0:	98 b3       	in	r25, 0x18	; 24
     fb2:	92 2b       	or	r25, r18
     fb4:	98 bb       	out	0x18, r25	; 24
     fb6:	55 e3       	ldi	r21, 0x35	; 53
     fb8:	5a 95       	dec	r21
     fba:	f1 f7       	brne	.-4      	; 0xfb8 <_Z13ds1820_re_bith+0x36>
     fbc:	00 00       	nop
	_delay_us(10);
	rebit = (DS1820_PIN & (1<<used_pin)) >> used_pin; 	//Read bit
     fbe:	46 b3       	in	r20, 0x16	; 22
     fc0:	e7 ec       	ldi	r30, 0xC7	; 199
     fc2:	f0 e0       	ldi	r31, 0x00	; 0
     fc4:	31 97       	sbiw	r30, 0x01	; 1
     fc6:	f1 f7       	brne	.-4      	; 0xfc4 <_Z13ds1820_re_bith+0x42>
     fc8:	00 c0       	rjmp	.+0      	; 0xfca <_Z13ds1820_re_bith+0x48>
     fca:	00 00       	nop
	_delay_us(50);
	return rebit;								
     fcc:	50 e0       	ldi	r21, 0x00	; 0
     fce:	24 23       	and	r18, r20
     fd0:	35 23       	and	r19, r21
     fd2:	a9 01       	movw	r20, r18
     fd4:	02 c0       	rjmp	.+4      	; 0xfda <_Z13ds1820_re_bith+0x58>
     fd6:	55 95       	asr	r21
     fd8:	47 95       	ror	r20
     fda:	8a 95       	dec	r24
     fdc:	e2 f7       	brpl	.-8      	; 0xfd6 <_Z13ds1820_re_bith+0x54>
     fde:	ca 01       	movw	r24, r20
}
     fe0:	08 95       	ret

00000fe2 <_Z14ds1820_re_byteh>:
//-----------------------------------------
// Read 1 byte from DS18S20
//-----------------------------------------
uint8_t ds1820_re_byte(uint8_t used_pin)
{
     fe2:	ef 92       	push	r14
     fe4:	ff 92       	push	r15
     fe6:	0f 93       	push	r16
     fe8:	1f 93       	push	r17
     fea:	cf 93       	push	r28
     fec:	df 93       	push	r29
     fee:	18 2f       	mov	r17, r24
     ff0:	c0 e0       	ldi	r28, 0x00	; 0
     ff2:	d0 e0       	ldi	r29, 0x00	; 0
	uint8_t rebyte =0x00;
     ff4:	00 e0       	ldi	r16, 0x00	; 0
	for (i=0;i<8;i++)
	{
		rebit=ds1820_re_bit(used_pin);
		//_delay_us(2);									//be on the save side
		if (rebit==1){
			rebyte|=(1<<i);
     ff6:	ee 24       	eor	r14, r14
     ff8:	e3 94       	inc	r14
     ffa:	f1 2c       	mov	r15, r1
	uint8_t rebit;
	uint8_t i;

	for (i=0;i<8;i++)
	{
		rebit=ds1820_re_bit(used_pin);
     ffc:	81 2f       	mov	r24, r17
     ffe:	0e 94 c1 07 	call	0xf82	; 0xf82 <_Z13ds1820_re_bith>
		//_delay_us(2);									//be on the save side
		if (rebit==1){
    1002:	81 30       	cpi	r24, 0x01	; 1
    1004:	41 f4       	brne	.+16     	; 0x1016 <_Z14ds1820_re_byteh+0x34>
			rebyte|=(1<<i);
    1006:	c7 01       	movw	r24, r14
    1008:	0c 2e       	mov	r0, r28
    100a:	02 c0       	rjmp	.+4      	; 0x1010 <_Z14ds1820_re_byteh+0x2e>
    100c:	88 0f       	add	r24, r24
    100e:	99 1f       	adc	r25, r25
    1010:	0a 94       	dec	r0
    1012:	e2 f7       	brpl	.-8      	; 0x100c <_Z14ds1820_re_byteh+0x2a>
    1014:	08 2b       	or	r16, r24
    1016:	21 96       	adiw	r28, 0x01	; 1
{
	uint8_t rebyte =0x00;
	uint8_t rebit;
	uint8_t i;

	for (i=0;i<8;i++)
    1018:	c8 30       	cpi	r28, 0x08	; 8
    101a:	d1 05       	cpc	r29, r1
    101c:	79 f7       	brne	.-34     	; 0xffc <_Z14ds1820_re_byteh+0x1a>
		if (rebit==1){
			rebyte|=(1<<i);
		}
	}
	return(rebyte);
}
    101e:	80 2f       	mov	r24, r16
    1020:	df 91       	pop	r29
    1022:	cf 91       	pop	r28
    1024:	1f 91       	pop	r17
    1026:	0f 91       	pop	r16
    1028:	ff 90       	pop	r15
    102a:	ef 90       	pop	r14
    102c:	08 95       	ret

0000102e <_Z14ds1820_wr_bytehh>:
//-----------------------------------------
// Write 1 byte to DS18S20
//-----------------------------------------
void ds1820_wr_byte(uint8_t wrbyte,uint8_t used_pin)
{
    102e:	1f 93       	push	r17
    1030:	cf 93       	push	r28
    1032:	df 93       	push	r29
    1034:	d8 2f       	mov	r29, r24
    1036:	16 2f       	mov	r17, r22
    1038:	c8 e0       	ldi	r28, 0x08	; 8
	uint8_t i;
	for (i=0; i<8; i++) // writes byte, one bit at a time
	{	    
		ds1820_wr_bit((wrbyte & 0b00000001),used_pin);
    103a:	61 2f       	mov	r22, r17
    103c:	8d 2f       	mov	r24, r29
    103e:	81 70       	andi	r24, 0x01	; 1
    1040:	0e 94 7b 07 	call	0xef6	; 0xef6 <_Z13ds1820_wr_bithh>
		wrbyte = wrbyte >> 1;
    1044:	d6 95       	lsr	r29
    1046:	c1 50       	subi	r28, 0x01	; 1
// Write 1 byte to DS18S20
//-----------------------------------------
void ds1820_wr_byte(uint8_t wrbyte,uint8_t used_pin)
{
	uint8_t i;
	for (i=0; i<8; i++) // writes byte, one bit at a time
    1048:	c1 f7       	brne	.-16     	; 0x103a <_Z14ds1820_wr_bytehh+0xc>
    104a:	8a e1       	ldi	r24, 0x1A	; 26
    104c:	8a 95       	dec	r24
    104e:	f1 f7       	brne	.-4      	; 0x104c <_Z14ds1820_wr_bytehh+0x1e>
    1050:	00 c0       	rjmp	.+0      	; 0x1052 <_Z14ds1820_wr_bytehh+0x24>
	{	    
		ds1820_wr_bit((wrbyte & 0b00000001),used_pin);
		wrbyte = wrbyte >> 1;
	}
	_delay_us(5);
}
    1052:	df 91       	pop	r29
    1054:	cf 91       	pop	r28
    1056:	1f 91       	pop	r17
    1058:	08 95       	ret

0000105a <_Z14ds1820_measureh>:
//-----------------------------------------
// Measure temperature
//-----------------------------------------
void  ds1820_measure(uint8_t used_pin)
{
    105a:	cf 93       	push	r28
    105c:	c8 2f       	mov	r28, r24
	uint8_t error;
	
	error=ds1820_reset(used_pin);									//1. Reset
    105e:	0e 94 3a 07 	call	0xe74	; 0xe74 <_Z12ds1820_reseth>
	if (error==0)
    1062:	81 11       	cpse	r24, r1
    1064:	08 c0       	rjmp	.+16     	; 0x1076 <_Z14ds1820_measureh+0x1c>
	{
		ds1820_wr_byte(0xCC,used_pin);  							//2. skip ROM
    1066:	6c 2f       	mov	r22, r28
    1068:	8c ec       	ldi	r24, 0xCC	; 204
    106a:	0e 94 17 08 	call	0x102e	; 0x102e <_Z14ds1820_wr_bytehh>
		ds1820_wr_byte(0x44,used_pin);  							//3. ask for temperature conversion
    106e:	6c 2f       	mov	r22, r28
    1070:	84 e4       	ldi	r24, 0x44	; 68
    1072:	0e 94 17 08 	call	0x102e	; 0x102e <_Z14ds1820_wr_bytehh>
	}
}
    1076:	cf 91       	pop	r28
    1078:	08 95       	ret

0000107a <_Z16ds1820_read_temph>:
//-----------------------------------------
// Read temperature
//-----------------------------------------
uint16_t  ds1820_read_temp(uint8_t used_pin)	
{
    107a:	cf 92       	push	r12
    107c:	df 92       	push	r13
    107e:	ef 92       	push	r14
    1080:	ff 92       	push	r15
    1082:	0f 93       	push	r16
    1084:	1f 93       	push	r17
    1086:	cf 93       	push	r28
    1088:	df 93       	push	r29
    108a:	cd b7       	in	r28, 0x3d	; 61
    108c:	de b7       	in	r29, 0x3e	; 62
    108e:	29 97       	sbiw	r28, 0x09	; 9
    1090:	0f b6       	in	r0, 0x3f	; 63
    1092:	f8 94       	cli
    1094:	de bf       	out	0x3e, r29	; 62
    1096:	0f be       	out	0x3f, r0	; 63
    1098:	cd bf       	out	0x3d, r28	; 61
    109a:	f8 2e       	mov	r15, r24
	uint8_t error,i;
    uint8_t scratchpad[9];
	uint16_t temp=0;
	scratchpad[0]=0;
    109c:	19 82       	std	Y+1, r1	; 0x01
	scratchpad[1]=0;
    109e:	1a 82       	std	Y+2, r1	; 0x02
	scratchpad[5]=0;
	scratchpad[6]=0;
	scratchpad[7]=0;
	scratchpad[8]=0;
								 
	    error=ds1820_reset(used_pin);								//5. Reset
    10a0:	0e 94 3a 07 	call	0xe74	; 0xe74 <_Z12ds1820_reseth>
	    ds1820_wr_byte(0xCC,used_pin);  							//6. skip ROM
    10a4:	6f 2d       	mov	r22, r15
    10a6:	8c ec       	ldi	r24, 0xCC	; 204
    10a8:	0e 94 17 08 	call	0x102e	; 0x102e <_Z14ds1820_wr_bytehh>
	    ds1820_wr_byte(0xBE,used_pin);  							//7. Read entire scratchpad 9 bytes
    10ac:	6f 2d       	mov	r22, r15
    10ae:	8e eb       	ldi	r24, 0xBE	; 190
    10b0:	0e 94 17 08 	call	0x102e	; 0x102e <_Z14ds1820_wr_bytehh>
    10b4:	8e 01       	movw	r16, r28
    10b6:	0f 5f       	subi	r16, 0xFF	; 255
    10b8:	1f 4f       	sbci	r17, 0xFF	; 255
    10ba:	6e 01       	movw	r12, r28
    10bc:	8a e0       	ldi	r24, 0x0A	; 10
    10be:	c8 0e       	add	r12, r24
    10c0:	d1 1c       	adc	r13, r1
    
	    for (i=0; i<9; i++)     									//8. Get scratchpad byte by byte
	    {
	       scratchpad[i] = ds1820_re_byte(used_pin); 					//9. read one DS18S20 byte
    10c2:	8f 2d       	mov	r24, r15
    10c4:	0e 94 f1 07 	call	0xfe2	; 0xfe2 <_Z14ds1820_re_byteh>
    10c8:	f8 01       	movw	r30, r16
    10ca:	81 93       	st	Z+, r24
    10cc:	8f 01       	movw	r16, r30
								 
	    error=ds1820_reset(used_pin);								//5. Reset
	    ds1820_wr_byte(0xCC,used_pin);  							//6. skip ROM
	    ds1820_wr_byte(0xBE,used_pin);  							//7. Read entire scratchpad 9 bytes
    
	    for (i=0; i<9; i++)     									//8. Get scratchpad byte by byte
    10ce:	ec 15       	cp	r30, r12
    10d0:	fd 05       	cpc	r31, r13
    10d2:	b9 f7       	brne	.-18     	; 0x10c2 <_Z16ds1820_read_temph+0x48>
	    {
	       scratchpad[i] = ds1820_re_byte(used_pin); 					//9. read one DS18S20 byte
	    }
		if((scratchpad[1] & 0xF8) == 0){
    10d4:	1a 81       	ldd	r17, Y+2	; 0x02
    10d6:	81 2f       	mov	r24, r17
    10d8:	88 7f       	andi	r24, 0xF8	; 248
    10da:	59 f5       	brne	.+86     	; 0x1132 <_Z16ds1820_read_temph+0xb8>
			temp = ((float)scratchpad[0]*0.625);
			temp += ((float)(scratchpad[1] & 0x07)*160.0);
    10dc:	69 81       	ldd	r22, Y+1	; 0x01
    10de:	70 e0       	ldi	r23, 0x00	; 0
    10e0:	80 e0       	ldi	r24, 0x00	; 0
    10e2:	90 e0       	ldi	r25, 0x00	; 0
    10e4:	0e 94 1e 17 	call	0x2e3c	; 0x2e3c <__floatunsisf>
    10e8:	20 e0       	ldi	r18, 0x00	; 0
    10ea:	30 e0       	ldi	r19, 0x00	; 0
    10ec:	40 e2       	ldi	r20, 0x20	; 32
    10ee:	5f e3       	ldi	r21, 0x3F	; 63
    10f0:	0e 94 d5 17 	call	0x2faa	; 0x2faa <__mulsf3>
    10f4:	0e 94 ef 16 	call	0x2dde	; 0x2dde <__fixunssfsi>
    10f8:	80 e0       	ldi	r24, 0x00	; 0
    10fa:	90 e0       	ldi	r25, 0x00	; 0
    10fc:	0e 94 1e 17 	call	0x2e3c	; 0x2e3c <__floatunsisf>
    1100:	6b 01       	movw	r12, r22
    1102:	7c 01       	movw	r14, r24
    1104:	61 2f       	mov	r22, r17
    1106:	67 70       	andi	r22, 0x07	; 7
    1108:	70 e0       	ldi	r23, 0x00	; 0
    110a:	80 e0       	ldi	r24, 0x00	; 0
    110c:	90 e0       	ldi	r25, 0x00	; 0
    110e:	0e 94 20 17 	call	0x2e40	; 0x2e40 <__floatsisf>
    1112:	20 e0       	ldi	r18, 0x00	; 0
    1114:	30 e0       	ldi	r19, 0x00	; 0
    1116:	40 e2       	ldi	r20, 0x20	; 32
    1118:	53 e4       	ldi	r21, 0x43	; 67
    111a:	0e 94 d5 17 	call	0x2faa	; 0x2faa <__mulsf3>
    111e:	9b 01       	movw	r18, r22
    1120:	ac 01       	movw	r20, r24
    1122:	c7 01       	movw	r24, r14
    1124:	b6 01       	movw	r22, r12
    1126:	0e 94 0c 16 	call	0x2c18	; 0x2c18 <__addsf3>
    112a:	0e 94 ef 16 	call	0x2dde	; 0x2dde <__fixunssfsi>
    112e:	cb 01       	movw	r24, r22
    1130:	02 c0       	rjmp	.+4      	; 0x1136 <_Z16ds1820_read_temph+0xbc>
		}else{
			//temp = ((float)scratchpad[0]*0.625);
			//temp += ((float)(scratchpad[1] & 0x07)*160.0);
			//temp *= -1;
			temp = 0;
    1132:	80 e0       	ldi	r24, 0x00	; 0
    1134:	90 e0       	ldi	r25, 0x00	; 0
		}

	return temp;
}
    1136:	29 96       	adiw	r28, 0x09	; 9
    1138:	0f b6       	in	r0, 0x3f	; 63
    113a:	f8 94       	cli
    113c:	de bf       	out	0x3e, r29	; 62
    113e:	0f be       	out	0x3f, r0	; 63
    1140:	cd bf       	out	0x3d, r28	; 61
    1142:	df 91       	pop	r29
    1144:	cf 91       	pop	r28
    1146:	1f 91       	pop	r17
    1148:	0f 91       	pop	r16
    114a:	ff 90       	pop	r15
    114c:	ef 90       	pop	r14
    114e:	df 90       	pop	r13
    1150:	cf 90       	pop	r12
    1152:	08 95       	ret

00001154 <_Z7hw_initv>:
uint16_t u16SoundTime;

void hw_init(void)
{
	//Set Ports
	DDRC &= ~(1<<PC0) | ~(1<<PC1) | ~(1<<PC2) |  ~(1<<PC3);
    1154:	84 b3       	in	r24, 0x14	; 20
    1156:	84 bb       	out	0x14, r24	; 20
	DDRA |= (1 << PA6) | (1 << PA7);
    1158:	8a b3       	in	r24, 0x1a	; 26
    115a:	80 6c       	ori	r24, 0xC0	; 192
    115c:	8a bb       	out	0x1a, r24	; 26
	SOUNDDDR |= (1 << SOUND1);
    115e:	bc 9a       	sbi	0x17, 4	; 23
	SOUNDPORT &= ~(1 << SOUND1);
    1160:	c4 98       	cbi	0x18, 4	; 24
	DDRB |= (1 << PB7);
    1162:	bf 9a       	sbi	0x17, 7	; 23
	DDRB &= ~(1 << PB5);
    1164:	bd 98       	cbi	0x17, 5	; 23
	PORTB &= (1 << PB5);
    1166:	88 b3       	in	r24, 0x18	; 24
    1168:	80 72       	andi	r24, 0x20	; 32
    116a:	88 bb       	out	0x18, r24	; 24
    116c:	08 95       	ret

0000116e <_Z18systick_timer_initv>:
}


void systick_timer_init(void)	//Systicktimer to 10 ms
{
	TCCR0 |= (1 << WGM01) | (1 << CS02) | (1 << CS00);
    116e:	83 b7       	in	r24, 0x33	; 51
    1170:	8d 60       	ori	r24, 0x0D	; 13
    1172:	83 bf       	out	0x33, r24	; 51
	OCR0 = 157;
    1174:	8d e9       	ldi	r24, 0x9D	; 157
    1176:	8c bf       	out	0x3c, r24	; 60
	TIMSK |= (1 << OCIE0);
    1178:	89 b7       	in	r24, 0x39	; 57
    117a:	82 60       	ori	r24, 0x02	; 2
    117c:	89 bf       	out	0x39, r24	; 57
    117e:	08 95       	ret

00001180 <_Z6set_blh>:
{
	if (brightnes >= 0xFF) brightnes = 0xFF; 
	if (brightnes <= 0x00) brightnes = 0x00;
	

	if(brightnes == 0x00)
    1180:	81 11       	cpse	r24, r1
    1182:	05 c0       	rjmp	.+10     	; 0x118e <_Z6set_blh+0xe>
	{
		TCCR2 &= ~(1 << COM21); // Disable Output Compare Pin
    1184:	85 b5       	in	r24, 0x25	; 37
    1186:	8f 7d       	andi	r24, 0xDF	; 223
    1188:	85 bd       	out	0x25, r24	; 37
		PORTD &= ~(1 << PD7);
    118a:	97 98       	cbi	0x12, 7	; 18
    118c:	08 95       	ret
	}
	else if(brightnes == 0xFF)
    118e:	8f 3f       	cpi	r24, 0xFF	; 255
    1190:	31 f4       	brne	.+12     	; 0x119e <_Z6set_blh+0x1e>
	{
		TCCR2 |= (1 << COM21);
    1192:	85 b5       	in	r24, 0x25	; 37
    1194:	80 62       	ori	r24, 0x20	; 32
    1196:	85 bd       	out	0x25, r24	; 37
		OCR2 = 0xFF;
    1198:	8f ef       	ldi	r24, 0xFF	; 255
    119a:	83 bd       	out	0x23, r24	; 35
    119c:	08 95       	ret
	}
	else
	{
		TCCR2 |= (1 << COM21);
    119e:	95 b5       	in	r25, 0x25	; 37
    11a0:	90 62       	ori	r25, 0x20	; 32
    11a2:	95 bd       	out	0x25, r25	; 37
		OCR2 = brightnes;
    11a4:	83 bd       	out	0x23, r24	; 35
    11a6:	08 95       	ret

000011a8 <_Z13bl_timer_initv>:
	TIMSK |= (1 << OCIE0);
}

void bl_timer_init(void)
{
	TCCR2 |= (1 << WGM21) | (1 << WGM20); // Set Timer 2 as fast PWM
    11a8:	85 b5       	in	r24, 0x25	; 37
    11aa:	88 64       	ori	r24, 0x48	; 72
    11ac:	85 bd       	out	0x25, r24	; 37
	TCCR2 |= (1 << COM21); // Enable Output Compare Pin
    11ae:	85 b5       	in	r24, 0x25	; 37
    11b0:	80 62       	ori	r24, 0x20	; 32
    11b2:	85 bd       	out	0x25, r24	; 37
	TCCR2 |= (1 << CS22) | (1 << CS21);	  // Set BL Clock to Prescaler 256
    11b4:	85 b5       	in	r24, 0x25	; 37
    11b6:	86 60       	ori	r24, 0x06	; 6
    11b8:	85 bd       	out	0x25, r24	; 37
	
	DDRD |= (1 << PD7);
    11ba:	8f 9a       	sbi	0x11, 7	; 17
	set_bl(BL_BRIGHTNESS_MAX);										
    11bc:	83 eb       	ldi	r24, 0xB3	; 179
    11be:	0e 94 c0 08 	call	0x1180	; 0x1180 <_Z6set_blh>
    11c2:	08 95       	ret

000011c4 <_Z10vBlControlv>:
}

void vBlControl()
{
	static uint8_t brightnes = BL_BRIGHTNESS_MAX;
	if (display_active > 0)
    11c4:	80 91 60 00 	lds	r24, 0x0060	; 0x800060 <__data_start>
    11c8:	90 91 61 00 	lds	r25, 0x0061	; 0x800061 <__data_start+0x1>
    11cc:	00 97       	sbiw	r24, 0x00	; 0
    11ce:	59 f0       	breq	.+22     	; 0x11e6 <_Z10vBlControlv+0x22>
	{
		display_active--;
    11d0:	01 97       	sbiw	r24, 0x01	; 1
    11d2:	90 93 61 00 	sts	0x0061, r25	; 0x800061 <__data_start+0x1>
    11d6:	80 93 60 00 	sts	0x0060, r24	; 0x800060 <__data_start>
		brightnes = BL_BRIGHTNESS_MAX;
    11da:	83 eb       	ldi	r24, 0xB3	; 179
    11dc:	80 93 62 00 	sts	0x0062, r24	; 0x800062 <_ZZ10vBlControlvE9brightnes>
		set_bl(brightnes);
    11e0:	0e 94 c0 08 	call	0x1180	; 0x1180 <_Z6set_blh>
    11e4:	08 95       	ret
	}
	else
	{
		if (brightnes > BL_BRIGHTNESS_MIN)
    11e6:	80 91 62 00 	lds	r24, 0x0062	; 0x800062 <_ZZ10vBlControlvE9brightnes>
    11ea:	8b 30       	cpi	r24, 0x0B	; 11
    11ec:	28 f0       	brcs	.+10     	; 0x11f8 <_Z10vBlControlv+0x34>
		{
			brightnes--;
    11ee:	81 50       	subi	r24, 0x01	; 1
    11f0:	80 93 62 00 	sts	0x0062, r24	; 0x800062 <_ZZ10vBlControlvE9brightnes>
			set_bl(brightnes);
    11f4:	0e 94 c0 08 	call	0x1180	; 0x1180 <_Z6set_blh>
    11f8:	08 95       	ret

000011fa <_Z10set_status7ESTATUS>:
	}
}

void set_status(ESTATUS status)
{
	switch(status)
    11fa:	81 30       	cpi	r24, 0x01	; 1
    11fc:	49 f0       	breq	.+18     	; 0x1210 <_Z10set_status7ESTATUS+0x16>
    11fe:	28 f0       	brcs	.+10     	; 0x120a <_Z10set_status7ESTATUS+0x10>
    1200:	82 30       	cpi	r24, 0x02	; 2
    1202:	49 f0       	breq	.+18     	; 0x1216 <_Z10set_status7ESTATUS+0x1c>
    1204:	83 30       	cpi	r24, 0x03	; 3
    1206:	51 f0       	breq	.+20     	; 0x121c <_Z10set_status7ESTATUS+0x22>
    1208:	08 95       	ret
	{
		case eStatus_OK:
		{
			PORTA &= ~(1 << PA6);
    120a:	de 98       	cbi	0x1b, 6	; 27
			PORTA |= (1 << PA7);
    120c:	df 9a       	sbi	0x1b, 7	; 27
			break;	
    120e:	08 95       	ret
		}
		case eStatus_Warning:
		{
			PORTA |= (1 << PA6);
    1210:	de 9a       	sbi	0x1b, 6	; 27
			PORTA |= (1 << PA7);
    1212:	df 9a       	sbi	0x1b, 7	; 27
			break;
    1214:	08 95       	ret
		}
		case eStatus_Failure:
		{
			PORTA |= (1 << PA6);
    1216:	de 9a       	sbi	0x1b, 6	; 27
			PORTA &= ~(1 << PA7);
    1218:	df 98       	cbi	0x1b, 7	; 27
			break;
    121a:	08 95       	ret
		}
		case eStatus_Off:
		{
			PORTA &= ~(1 << PA6);
    121c:	de 98       	cbi	0x1b, 6	; 27
			PORTA &= ~(1 << PA7);
    121e:	df 98       	cbi	0x1b, 7	; 27
    1220:	08 95       	ret

00001222 <_Z12get_confpinsv>:
}

uint8_t get_confpins(void)
{
	uint8_t config = 0;
	DDRA &= ~(1 << PA2) & ~(1 << PA3);
    1222:	8a b3       	in	r24, 0x1a	; 26
    1224:	83 7f       	andi	r24, 0xF3	; 243
    1226:	8a bb       	out	0x1a, r24	; 26
	config = PINA & ((1 << PA2) | (1 << PA3));
    1228:	89 b3       	in	r24, 0x19	; 25
	config = config >> 2;
    122a:	8c 70       	andi	r24, 0x0C	; 12
	return config;
}
    122c:	86 95       	lsr	r24
    122e:	86 95       	lsr	r24
    1230:	08 95       	ret

00001232 <_Z7hw_POSTv>:
	DDRB &= ~(1 << PB5);
	PORTB &= (1 << PB5);
}

void hw_POST(void)
{
    1232:	cf 93       	push	r28
	uint8_t error = 0;
	
	switch(get_confpins())
    1234:	0e 94 11 09 	call	0x1222	; 0x1222 <_Z12get_confpinsv>
    1238:	81 30       	cpi	r24, 0x01	; 1
    123a:	09 f4       	brne	.+2      	; 0x123e <_Z7hw_POSTv+0xc>
    123c:	55 c0       	rjmp	.+170    	; 0x12e8 <_Z7hw_POSTv+0xb6>
    123e:	08 f4       	brcc	.+2      	; 0x1242 <_Z7hw_POSTv+0x10>
    1240:	8a c0       	rjmp	.+276    	; 0x1356 <_Z7hw_POSTv+0x124>
    1242:	82 30       	cpi	r24, 0x02	; 2
    1244:	71 f1       	breq	.+92     	; 0x12a2 <_Z7hw_POSTv+0x70>
    1246:	83 30       	cpi	r24, 0x03	; 3
    1248:	09 f0       	breq	.+2      	; 0x124c <_Z7hw_POSTv+0x1a>
    124a:	b4 c0       	rjmp	.+360    	; 0x13b4 <_Z7hw_POSTv+0x182>
	{
		case 3:	// Alles verfügbar 2 Räume
		{
			error |= ds1820_reset(DS1820_SENS1);
    124c:	80 e0       	ldi	r24, 0x00	; 0
    124e:	0e 94 3a 07 	call	0xe74	; 0xe74 <_Z12ds1820_reseth>
    1252:	c8 2f       	mov	r28, r24
			error |= ds1820_reset(DS1820_SENS2) << 2;
    1254:	81 e0       	ldi	r24, 0x01	; 1
    1256:	0e 94 3a 07 	call	0xe74	; 0xe74 <_Z12ds1820_reseth>
    125a:	24 e0       	ldi	r18, 0x04	; 4
    125c:	82 9f       	mul	r24, r18
    125e:	c0 01       	movw	r24, r0
    1260:	11 24       	eor	r1, r1
    1262:	c8 2b       	or	r28, r24
			vWriteChar(nDisplayPuffer.z1,"Zwei R\xe1ume");
    1264:	62 e1       	ldi	r22, 0x12	; 18
    1266:	71 e0       	ldi	r23, 0x01	; 1
    1268:	82 e1       	ldi	r24, 0x12	; 18
    126a:	96 e0       	ldi	r25, 0x06	; 6
    126c:	0e 94 0d 0b 	call	0x161a	; 0x161a <_Z10vWriteCharPcPKc>
			vWriteChar(nDisplayPuffer.z2,"mit Wendung");
    1270:	6d e1       	ldi	r22, 0x1D	; 29
    1272:	71 e0       	ldi	r23, 0x01	; 1
    1274:	83 e2       	ldi	r24, 0x23	; 35
    1276:	96 e0       	ldi	r25, 0x06	; 6
    1278:	0e 94 0d 0b 	call	0x161a	; 0x161a <_Z10vWriteCharPcPKc>
			if (error & 0x01)
    127c:	c0 ff       	sbrs	r28, 0
    127e:	04 c0       	rjmp	.+8      	; 0x1288 <_Z7hw_POSTv+0x56>
			{
				t_param1.status_soll = eHeat_SensorFail;
    1280:	82 e0       	ldi	r24, 0x02	; 2
    1282:	80 93 09 06 	sts	0x0609, r24	; 0x800609 <t_param1+0xf>
    1286:	03 c0       	rjmp	.+6      	; 0x128e <_Z7hw_POSTv+0x5c>
			} 
			else
			{
				t_param1.status_soll = eHeat_On;
    1288:	81 e0       	ldi	r24, 0x01	; 1
    128a:	80 93 09 06 	sts	0x0609, r24	; 0x800609 <t_param1+0xf>
			}
			if (error & 0x02)
    128e:	c1 ff       	sbrs	r28, 1
    1290:	04 c0       	rjmp	.+8      	; 0x129a <_Z7hw_POSTv+0x68>
			{
				t_param2.status_soll = eHeat_SensorFail;
    1292:	82 e0       	ldi	r24, 0x02	; 2
    1294:	80 93 f9 05 	sts	0x05F9, r24	; 0x8005f9 <t_param2+0xf>
    1298:	8e c0       	rjmp	.+284    	; 0x13b6 <_Z7hw_POSTv+0x184>
			}
			else
			{
				t_param2.status_soll = eHeat_On;
    129a:	81 e0       	ldi	r24, 0x01	; 1
    129c:	80 93 f9 05 	sts	0x05F9, r24	; 0x8005f9 <t_param2+0xf>
    12a0:	8a c0       	rjmp	.+276    	; 0x13b6 <_Z7hw_POSTv+0x184>
			break;

		}
		case 2:	// Alles verfügbar 1 Raum
		{
			error |= ds1820_reset(DS1820_SENS1);
    12a2:	80 e0       	ldi	r24, 0x00	; 0
    12a4:	0e 94 3a 07 	call	0xe74	; 0xe74 <_Z12ds1820_reseth>
    12a8:	c8 2f       	mov	r28, r24
			vSaveParaWert(ePara_Enable2, 0);
    12aa:	60 e0       	ldi	r22, 0x00	; 0
    12ac:	70 e0       	ldi	r23, 0x00	; 0
    12ae:	8d e0       	ldi	r24, 0x0D	; 13
    12b0:	90 e0       	ldi	r25, 0x00	; 0
    12b2:	0e 94 73 05 	call	0xae6	; 0xae6 <_Z13vSaveParaWertii>
			vWriteChar(nDisplayPuffer.z1,"Ein Raum");
    12b6:	69 e2       	ldi	r22, 0x29	; 41
    12b8:	71 e0       	ldi	r23, 0x01	; 1
    12ba:	82 e1       	ldi	r24, 0x12	; 18
    12bc:	96 e0       	ldi	r25, 0x06	; 6
    12be:	0e 94 0d 0b 	call	0x161a	; 0x161a <_Z10vWriteCharPcPKc>
			vWriteChar(nDisplayPuffer.z2,"mit Wendung");
    12c2:	6d e1       	ldi	r22, 0x1D	; 29
    12c4:	71 e0       	ldi	r23, 0x01	; 1
    12c6:	83 e2       	ldi	r24, 0x23	; 35
    12c8:	96 e0       	ldi	r25, 0x06	; 6
    12ca:	0e 94 0d 0b 	call	0x161a	; 0x161a <_Z10vWriteCharPcPKc>
			if (error & 0x01)
    12ce:	c0 ff       	sbrs	r28, 0
    12d0:	04 c0       	rjmp	.+8      	; 0x12da <_Z7hw_POSTv+0xa8>
			{
				t_param1.status_soll = eHeat_SensorFail;
    12d2:	82 e0       	ldi	r24, 0x02	; 2
    12d4:	80 93 09 06 	sts	0x0609, r24	; 0x800609 <t_param1+0xf>
    12d8:	03 c0       	rjmp	.+6      	; 0x12e0 <_Z7hw_POSTv+0xae>
			}
			else
			{
				t_param1.status_soll = eHeat_On;
    12da:	81 e0       	ldi	r24, 0x01	; 1
    12dc:	80 93 09 06 	sts	0x0609, r24	; 0x800609 <t_param1+0xf>
			}
			t_param2.status_soll = eHeat_NA;
    12e0:	86 e0       	ldi	r24, 0x06	; 6
    12e2:	80 93 f9 05 	sts	0x05F9, r24	; 0x8005f9 <t_param2+0xf>
			break;
    12e6:	67 c0       	rjmp	.+206    	; 0x13b6 <_Z7hw_POSTv+0x184>
		}
		case 1:	// Keine Motorwendung 2 Räume
		{
			error |= ds1820_reset(DS1820_SENS1);
    12e8:	80 e0       	ldi	r24, 0x00	; 0
    12ea:	0e 94 3a 07 	call	0xe74	; 0xe74 <_Z12ds1820_reseth>
    12ee:	c8 2f       	mov	r28, r24
			error |= ds1820_reset(DS1820_SENS2) << 2;
    12f0:	81 e0       	ldi	r24, 0x01	; 1
    12f2:	0e 94 3a 07 	call	0xe74	; 0xe74 <_Z12ds1820_reseth>
    12f6:	24 e0       	ldi	r18, 0x04	; 4
    12f8:	82 9f       	mul	r24, r18
    12fa:	c0 01       	movw	r24, r0
    12fc:	11 24       	eor	r1, r1
    12fe:	c8 2b       	or	r28, r24
			vSaveParaWert(ePara_WendeAnzahl1, 0);
    1300:	60 e0       	ldi	r22, 0x00	; 0
    1302:	70 e0       	ldi	r23, 0x00	; 0
    1304:	88 e0       	ldi	r24, 0x08	; 8
    1306:	90 e0       	ldi	r25, 0x00	; 0
    1308:	0e 94 73 05 	call	0xae6	; 0xae6 <_Z13vSaveParaWertii>
			vSaveParaWert(ePara_WendeAnzahl2, 0);
    130c:	60 e0       	ldi	r22, 0x00	; 0
    130e:	70 e0       	ldi	r23, 0x00	; 0
    1310:	89 e0       	ldi	r24, 0x09	; 9
    1312:	90 e0       	ldi	r25, 0x00	; 0
    1314:	0e 94 73 05 	call	0xae6	; 0xae6 <_Z13vSaveParaWertii>
			vWriteChar(nDisplayPuffer.z1,"Zwei R\xe1ume");
    1318:	62 e1       	ldi	r22, 0x12	; 18
    131a:	71 e0       	ldi	r23, 0x01	; 1
    131c:	82 e1       	ldi	r24, 0x12	; 18
    131e:	96 e0       	ldi	r25, 0x06	; 6
    1320:	0e 94 0d 0b 	call	0x161a	; 0x161a <_Z10vWriteCharPcPKc>
			vWriteChar(nDisplayPuffer.z2,"ohne Wendung");
    1324:	62 e3       	ldi	r22, 0x32	; 50
    1326:	71 e0       	ldi	r23, 0x01	; 1
    1328:	83 e2       	ldi	r24, 0x23	; 35
    132a:	96 e0       	ldi	r25, 0x06	; 6
    132c:	0e 94 0d 0b 	call	0x161a	; 0x161a <_Z10vWriteCharPcPKc>
			if (error & 0x01)
    1330:	c0 ff       	sbrs	r28, 0
    1332:	04 c0       	rjmp	.+8      	; 0x133c <_Z7hw_POSTv+0x10a>
			{
				t_param1.status_soll = eHeat_SensorFail;
    1334:	82 e0       	ldi	r24, 0x02	; 2
    1336:	80 93 09 06 	sts	0x0609, r24	; 0x800609 <t_param1+0xf>
    133a:	03 c0       	rjmp	.+6      	; 0x1342 <_Z7hw_POSTv+0x110>
			}
			else
			{
				t_param1.status_soll = eHeat_On;
    133c:	81 e0       	ldi	r24, 0x01	; 1
    133e:	80 93 09 06 	sts	0x0609, r24	; 0x800609 <t_param1+0xf>
			}
			if (error & 0x02)
    1342:	c1 ff       	sbrs	r28, 1
    1344:	04 c0       	rjmp	.+8      	; 0x134e <_Z7hw_POSTv+0x11c>
			{
				t_param2.status_soll = eHeat_SensorFail;
    1346:	82 e0       	ldi	r24, 0x02	; 2
    1348:	80 93 f9 05 	sts	0x05F9, r24	; 0x8005f9 <t_param2+0xf>
    134c:	34 c0       	rjmp	.+104    	; 0x13b6 <_Z7hw_POSTv+0x184>
			}
			else
			{
				t_param2.status_soll = eHeat_On;
    134e:	81 e0       	ldi	r24, 0x01	; 1
    1350:	80 93 f9 05 	sts	0x05F9, r24	; 0x8005f9 <t_param2+0xf>
    1354:	30 c0       	rjmp	.+96     	; 0x13b6 <_Z7hw_POSTv+0x184>
			}
			break;
		}
		case 0:	// Keine Motorwendung 1 Raum
		{
			error |= ds1820_reset(DS1820_SENS1);
    1356:	80 e0       	ldi	r24, 0x00	; 0
    1358:	0e 94 3a 07 	call	0xe74	; 0xe74 <_Z12ds1820_reseth>
    135c:	c8 2f       	mov	r28, r24
			vSaveParaWert(ePara_Enable2, 0);
    135e:	60 e0       	ldi	r22, 0x00	; 0
    1360:	70 e0       	ldi	r23, 0x00	; 0
    1362:	8d e0       	ldi	r24, 0x0D	; 13
    1364:	90 e0       	ldi	r25, 0x00	; 0
    1366:	0e 94 73 05 	call	0xae6	; 0xae6 <_Z13vSaveParaWertii>
			vSaveParaWert(ePara_WendeAnzahl1, 0);
    136a:	60 e0       	ldi	r22, 0x00	; 0
    136c:	70 e0       	ldi	r23, 0x00	; 0
    136e:	88 e0       	ldi	r24, 0x08	; 8
    1370:	90 e0       	ldi	r25, 0x00	; 0
    1372:	0e 94 73 05 	call	0xae6	; 0xae6 <_Z13vSaveParaWertii>
			vSaveParaWert(ePara_WendeAnzahl2, 0);
    1376:	60 e0       	ldi	r22, 0x00	; 0
    1378:	70 e0       	ldi	r23, 0x00	; 0
    137a:	89 e0       	ldi	r24, 0x09	; 9
    137c:	90 e0       	ldi	r25, 0x00	; 0
    137e:	0e 94 73 05 	call	0xae6	; 0xae6 <_Z13vSaveParaWertii>
			vWriteChar(nDisplayPuffer.z1,"Ein Raum");
    1382:	69 e2       	ldi	r22, 0x29	; 41
    1384:	71 e0       	ldi	r23, 0x01	; 1
    1386:	82 e1       	ldi	r24, 0x12	; 18
    1388:	96 e0       	ldi	r25, 0x06	; 6
    138a:	0e 94 0d 0b 	call	0x161a	; 0x161a <_Z10vWriteCharPcPKc>
			vWriteChar(nDisplayPuffer.z2,"ohne Wendung");
    138e:	62 e3       	ldi	r22, 0x32	; 50
    1390:	71 e0       	ldi	r23, 0x01	; 1
    1392:	83 e2       	ldi	r24, 0x23	; 35
    1394:	96 e0       	ldi	r25, 0x06	; 6
    1396:	0e 94 0d 0b 	call	0x161a	; 0x161a <_Z10vWriteCharPcPKc>
			if (error & 0x01)
    139a:	c0 ff       	sbrs	r28, 0
    139c:	04 c0       	rjmp	.+8      	; 0x13a6 <_Z7hw_POSTv+0x174>
			{
				t_param1.status_soll = eHeat_SensorFail;
    139e:	82 e0       	ldi	r24, 0x02	; 2
    13a0:	80 93 09 06 	sts	0x0609, r24	; 0x800609 <t_param1+0xf>
    13a4:	03 c0       	rjmp	.+6      	; 0x13ac <_Z7hw_POSTv+0x17a>
			}
			else
			{
				t_param1.status_soll = eHeat_On;
    13a6:	81 e0       	ldi	r24, 0x01	; 1
    13a8:	80 93 09 06 	sts	0x0609, r24	; 0x800609 <t_param1+0xf>
			}
			t_param2.status_soll = eHeat_NA;
    13ac:	86 e0       	ldi	r24, 0x06	; 6
    13ae:	80 93 f9 05 	sts	0x05F9, r24	; 0x8005f9 <t_param2+0xf>
			break;
    13b2:	01 c0       	rjmp	.+2      	; 0x13b6 <_Z7hw_POSTv+0x184>
	PORTB &= (1 << PB5);
}

void hw_POST(void)
{
	uint8_t error = 0;
    13b4:	c0 e0       	ldi	r28, 0x00	; 0
			t_param2.status_soll = eHeat_NA;
			break;
		}
	}
	
	if (error == 0)
    13b6:	c1 11       	cpse	r28, r1
    13b8:	04 c0       	rjmp	.+8      	; 0x13c2 <_Z7hw_POSTv+0x190>
	{
		set_status(eStatus_OK);
    13ba:	80 e0       	ldi	r24, 0x00	; 0
    13bc:	0e 94 fd 08 	call	0x11fa	; 0x11fa <_Z10set_status7ESTATUS>
    13c0:	03 c0       	rjmp	.+6      	; 0x13c8 <_Z7hw_POSTv+0x196>
	}
	else
	{
		set_status(eStatus_Failure);
    13c2:	82 e0       	ldi	r24, 0x02	; 2
    13c4:	0e 94 fd 08 	call	0x11fa	; 0x11fa <_Z10set_status7ESTATUS>
	}
}
    13c8:	cf 91       	pop	r28
    13ca:	08 95       	ret

000013cc <_Z13u8check_adminv>:
}

uint8_t u8check_admin(void)
{
	uint8_t admin = 0;
	PORTB |= (1 << PB7);
    13cc:	c7 9a       	sbi	0x18, 7	; 24
    13ce:	85 e3       	ldi	r24, 0x35	; 53
    13d0:	8a 95       	dec	r24
    13d2:	f1 f7       	brne	.-4      	; 0x13d0 <_Z13u8check_adminv+0x4>
    13d4:	00 00       	nop
	_delay_us(10);
	if (PINB & (1 << PB5))
    13d6:	b5 9b       	sbis	0x16, 5	; 22
    13d8:	0c c0       	rjmp	.+24     	; 0x13f2 <_Z13u8check_adminv+0x26>
	{
		PORTB &= ~(1 << PB7);
    13da:	c7 98       	cbi	0x18, 7	; 24
    13dc:	85 e3       	ldi	r24, 0x35	; 53
    13de:	8a 95       	dec	r24
    13e0:	f1 f7       	brne	.-4      	; 0x13de <_Z13u8check_adminv+0x12>
    13e2:	00 00       	nop
		_delay_us(10);
		if (!(PINB & (1 << PB5)))
    13e4:	86 b3       	in	r24, 0x16	; 22
	return config;
}

uint8_t u8check_admin(void)
{
	uint8_t admin = 0;
    13e6:	85 fb       	bst	r24, 5
    13e8:	99 27       	eor	r25, r25
    13ea:	90 f9       	bld	r25, 0
    13ec:	81 e0       	ldi	r24, 0x01	; 1
    13ee:	89 27       	eor	r24, r25
    13f0:	01 c0       	rjmp	.+2      	; 0x13f4 <_Z13u8check_adminv+0x28>
    13f2:	80 e0       	ldi	r24, 0x00	; 0
		if (!(PINB & (1 << PB5)))
		{
			admin = 1;
		}
	}
	PORTB &= ~(1 << PB7);
    13f4:	c7 98       	cbi	0x18, 7	; 24
	return admin;	
	//return 1;
}
    13f6:	08 95       	ret

000013f8 <_Z13vSoundControlv>:


void vSoundControl(void)
{
	if (u16SoundTime > 0)
    13f8:	80 91 0a 06 	lds	r24, 0x060A	; 0x80060a <u16SoundTime>
    13fc:	90 91 0b 06 	lds	r25, 0x060B	; 0x80060b <u16SoundTime+0x1>
    1400:	00 97       	sbiw	r24, 0x00	; 0
    1402:	39 f0       	breq	.+14     	; 0x1412 <_Z13vSoundControlv+0x1a>
	{
		u16SoundTime--;
    1404:	01 97       	sbiw	r24, 0x01	; 1
    1406:	90 93 0b 06 	sts	0x060B, r25	; 0x80060b <u16SoundTime+0x1>
    140a:	80 93 0a 06 	sts	0x060A, r24	; 0x80060a <u16SoundTime>
		SOUNDPORT |= (1 << SOUND1);
    140e:	c4 9a       	sbi	0x18, 4	; 24
    1410:	08 95       	ret
	} 
	else
	{
		SOUNDPORT &= ~(1 << SOUND1);
    1412:	c4 98       	cbi	0x18, 4	; 24
    1414:	08 95       	ret

00001416 <_Z12vSetSound_msj>:
	}
}

void vSetSound_ms(uint16_t sTime)
{
	u16SoundTime = sTime;
    1416:	90 93 0b 06 	sts	0x060B, r25	; 0x80060b <u16SoundTime+0x1>
    141a:	80 93 0a 06 	sts	0x060A, r24	; 0x80060a <u16SoundTime>
    141e:	08 95       	ret

00001420 <_Z13vSoftPWM_initv>:
}

void vSoftPWM_init()
{
	softPWM_reset();
    1420:	0e 94 39 15 	call	0x2a72	; 0x2a72 <_Z13softPWM_resetv>

	softPWM_assignchannel(e_softPWM_ch1, &HEATDDR, &HEATPORT, HEAT1);
    1424:	25 e0       	ldi	r18, 0x05	; 5
    1426:	4b e3       	ldi	r20, 0x3B	; 59
    1428:	50 e0       	ldi	r21, 0x00	; 0
    142a:	6a e3       	ldi	r22, 0x3A	; 58
    142c:	70 e0       	ldi	r23, 0x00	; 0
    142e:	80 e0       	ldi	r24, 0x00	; 0
    1430:	0e 94 f5 15 	call	0x2bea	; 0x2bea <_Z21softPWM_assignchannel17e_softPWM_channelPVhS1_h>
	softPWM_setmode(e_softPWM_ch1, e_softPWM_normal);
    1434:	61 e0       	ldi	r22, 0x01	; 1
    1436:	80 e0       	ldi	r24, 0x00	; 0
    1438:	0e 94 02 16 	call	0x2c04	; 0x2c04 <_Z15softPWM_setmode17e_softPWM_channel14e_softPWM_mode>
	softPWM_setvalue(e_softPWM_ch1, 0);
    143c:	60 e0       	ldi	r22, 0x00	; 0
    143e:	80 e0       	ldi	r24, 0x00	; 0
    1440:	0e 94 ec 15 	call	0x2bd8	; 0x2bd8 <_Z16softPWM_setvalue17e_softPWM_channelh>
	
	if((get_confpins() == 1 ) || (get_confpins() == 3))
    1444:	0e 94 11 09 	call	0x1222	; 0x1222 <_Z12get_confpinsv>
    1448:	81 30       	cpi	r24, 0x01	; 1
    144a:	21 f0       	breq	.+8      	; 0x1454 <_Z13vSoftPWM_initv+0x34>
    144c:	0e 94 11 09 	call	0x1222	; 0x1222 <_Z12get_confpinsv>
    1450:	83 30       	cpi	r24, 0x03	; 3
    1452:	81 f4       	brne	.+32     	; 0x1474 <_Z13vSoftPWM_initv+0x54>
	{
		softPWM_assignchannel(e_softPWM_ch2, &HEATDDR, &HEATPORT, HEAT2);
    1454:	24 e0       	ldi	r18, 0x04	; 4
    1456:	4b e3       	ldi	r20, 0x3B	; 59
    1458:	50 e0       	ldi	r21, 0x00	; 0
    145a:	6a e3       	ldi	r22, 0x3A	; 58
    145c:	70 e0       	ldi	r23, 0x00	; 0
    145e:	81 e0       	ldi	r24, 0x01	; 1
    1460:	0e 94 f5 15 	call	0x2bea	; 0x2bea <_Z21softPWM_assignchannel17e_softPWM_channelPVhS1_h>
		softPWM_setmode(e_softPWM_ch2, e_softPWM_normal);
    1464:	61 e0       	ldi	r22, 0x01	; 1
    1466:	81 e0       	ldi	r24, 0x01	; 1
    1468:	0e 94 02 16 	call	0x2c04	; 0x2c04 <_Z15softPWM_setmode17e_softPWM_channel14e_softPWM_mode>
		softPWM_setvalue(e_softPWM_ch2, 0);
    146c:	60 e0       	ldi	r22, 0x00	; 0
    146e:	81 e0       	ldi	r24, 0x01	; 1
    1470:	0e 94 ec 15 	call	0x2bd8	; 0x2bd8 <_Z16softPWM_setvalue17e_softPWM_channelh>
	}
	
	softPWM_init();
    1474:	0e 94 cc 14 	call	0x2998	; 0x2998 <_Z12softPWM_initv>
    1478:	08 95       	ret

0000147a <_ZL10lcd_enablev>:

////////////////////////////////////////////////////////////////////////////////
// Erzeugt einen Enable-Puls
static void lcd_enable( void )
{
	LCD_PORT |= (1<<LCD_EN);     // Enable auf 1 setzen
    147a:	95 9a       	sbi	0x12, 5	; 18
    147c:	8a e6       	ldi	r24, 0x6A	; 106
    147e:	8a 95       	dec	r24
    1480:	f1 f7       	brne	.-4      	; 0x147e <_ZL10lcd_enablev+0x4>
    1482:	00 c0       	rjmp	.+0      	; 0x1484 <_ZL10lcd_enablev+0xa>
	_delay_us( LCD_ENABLE_US );  // kurze Pause
	LCD_PORT &= ~(1<<LCD_EN);    // Enable auf 0 setzen
    1484:	95 98       	cbi	0x12, 5	; 18
    1486:	08 95       	ret

00001488 <_ZL7lcd_outh>:
// Sendet eine 4-bit Ausgabeoperation an das LCD
static void lcd_out( uint8_t data )
{
	data &= 0xF0;                       // obere 4 Bit maskieren
	
	LCD_PORT &= ~(0xF0>>(4-LCD_DB));    // Maske löschen
    1488:	92 b3       	in	r25, 0x12	; 18
    148a:	90 7f       	andi	r25, 0xF0	; 240
    148c:	92 bb       	out	0x12, r25	; 18
	LCD_PORT |= (data>>(4-LCD_DB));     // Bits setzen
    148e:	92 b3       	in	r25, 0x12	; 18
    1490:	82 95       	swap	r24
    1492:	8f 70       	andi	r24, 0x0F	; 15
    1494:	98 2b       	or	r25, r24
    1496:	92 bb       	out	0x12, r25	; 18
	lcd_enable();
    1498:	0e 94 3d 0a 	call	0x147a	; 0x147a <_ZL10lcd_enablev>
    149c:	08 95       	ret

0000149e <_Z8lcd_datah>:
}

////////////////////////////////////////////////////////////////////////////////
// Sendet ein Datenbyte an das LCD
void lcd_data( uint8_t data )
{
    149e:	cf 93       	push	r28
    14a0:	c8 2f       	mov	r28, r24
	LCD_PORT |= (1<<LCD_RS);    // RS auf 1 setzen
    14a2:	94 9a       	sbi	0x12, 4	; 18
	
	lcd_out( data );            // zuerst die oberen,
    14a4:	0e 94 44 0a 	call	0x1488	; 0x1488 <_ZL7lcd_outh>
	lcd_out( data<<4 );         // dann die unteren 4 Bit senden
    14a8:	8c 2f       	mov	r24, r28
    14aa:	82 95       	swap	r24
    14ac:	80 7f       	andi	r24, 0xF0	; 240
    14ae:	0e 94 44 0a 	call	0x1488	; 0x1488 <_ZL7lcd_outh>
    14b2:	85 ef       	ldi	r24, 0xF5	; 245
    14b4:	8a 95       	dec	r24
    14b6:	f1 f7       	brne	.-4      	; 0x14b4 <_Z8lcd_datah+0x16>
    14b8:	00 00       	nop
	
	_delay_us( LCD_WRITEDATA_US );
}
    14ba:	cf 91       	pop	r28
    14bc:	08 95       	ret

000014be <_Z11lcd_commandh>:

////////////////////////////////////////////////////////////////////////////////
// Sendet einen Befehl an das LCD
void lcd_command( uint8_t data )
{
    14be:	cf 93       	push	r28
    14c0:	c8 2f       	mov	r28, r24
	LCD_PORT &= ~(1<<LCD_RS);    // RS auf 0 setzen
    14c2:	94 98       	cbi	0x12, 4	; 18
	
	lcd_out( data );             // zuerst die oberen,
    14c4:	0e 94 44 0a 	call	0x1488	; 0x1488 <_ZL7lcd_outh>
	lcd_out( data<<4 );           // dann die unteren 4 Bit senden
    14c8:	8c 2f       	mov	r24, r28
    14ca:	82 95       	swap	r24
    14cc:	80 7f       	andi	r24, 0xF0	; 240
    14ce:	0e 94 44 0a 	call	0x1488	; 0x1488 <_ZL7lcd_outh>
    14d2:	80 ee       	ldi	r24, 0xE0	; 224
    14d4:	8a 95       	dec	r24
    14d6:	f1 f7       	brne	.-4      	; 0x14d4 <_Z11lcd_commandh+0x16>
	
	_delay_us( LCD_COMMAND_US );
}
    14d8:	cf 91       	pop	r28
    14da:	08 95       	ret

000014dc <_Z9lcd_clearv>:

////////////////////////////////////////////////////////////////////////////////
// Sendet den Befehl zur Löschung des Displays
void lcd_clear( void )
{
	lcd_command( LCD_CLEAR_DISPLAY );
    14dc:	81 e0       	ldi	r24, 0x01	; 1
    14de:	0e 94 5f 0a 	call	0x14be	; 0x14be <_Z11lcd_commandh>
	#else
		//round up by default
		__ticks_dc = (uint32_t)(ceil(fabs(__tmp)));
	#endif

	__builtin_avr_delay_cycles(__ticks_dc);
    14e2:	8f e3       	ldi	r24, 0x3F	; 63
    14e4:	9f e1       	ldi	r25, 0x1F	; 31
    14e6:	01 97       	sbiw	r24, 0x01	; 1
    14e8:	f1 f7       	brne	.-4      	; 0x14e6 <_Z9lcd_clearv+0xa>
    14ea:	00 c0       	rjmp	.+0      	; 0x14ec <_Z9lcd_clearv+0x10>
    14ec:	00 00       	nop
    14ee:	08 95       	ret

000014f0 <_Z8lcd_initv>:
{
	// verwendete Pins auf Ausgang schalten
	uint8_t pins = (0x0F << LCD_DB) |           // 4 Datenleitungen
	(1<<LCD_RS) |                // R/S Leitung
	(1<<LCD_EN);                 // Enable Leitung
	LCD_DDR |= pins;
    14f0:	81 b3       	in	r24, 0x11	; 17
    14f2:	8f 63       	ori	r24, 0x3F	; 63
    14f4:	81 bb       	out	0x11, r24	; 17
	
	// initial alle Ausgänge auf Null
	LCD_PORT &= ~pins;
    14f6:	82 b3       	in	r24, 0x12	; 18
    14f8:	80 7c       	andi	r24, 0xC0	; 192
    14fa:	82 bb       	out	0x12, r24	; 18
    14fc:	8f e5       	ldi	r24, 0x5F	; 95
    14fe:	9a ee       	ldi	r25, 0xEA	; 234
    1500:	01 97       	sbiw	r24, 0x01	; 1
    1502:	f1 f7       	brne	.-4      	; 0x1500 <_Z8lcd_initv+0x10>
    1504:	00 c0       	rjmp	.+0      	; 0x1506 <_Z8lcd_initv+0x16>
    1506:	00 00       	nop
	
	// warten auf die Bereitschaft des LCD
	_delay_ms( LCD_BOOTUP_MS );
	
	// Soft-Reset muss 3mal hintereinander gesendet werden zur Initialisierung
	lcd_out( LCD_SOFT_RESET );
    1508:	80 e3       	ldi	r24, 0x30	; 48
    150a:	0e 94 44 0a 	call	0x1488	; 0x1488 <_ZL7lcd_outh>
    150e:	8f e1       	ldi	r24, 0x1F	; 31
    1510:	9e e4       	ldi	r25, 0x4E	; 78
    1512:	01 97       	sbiw	r24, 0x01	; 1
    1514:	f1 f7       	brne	.-4      	; 0x1512 <_Z8lcd_initv+0x22>
    1516:	00 c0       	rjmp	.+0      	; 0x1518 <_Z8lcd_initv+0x28>
    1518:	00 00       	nop
	_delay_ms( LCD_SOFT_RESET_MS1 );
	
	lcd_enable();
    151a:	0e 94 3d 0a 	call	0x147a	; 0x147a <_ZL10lcd_enablev>
    151e:	8f e9       	ldi	r24, 0x9F	; 159
    1520:	9f e0       	ldi	r25, 0x0F	; 15
    1522:	01 97       	sbiw	r24, 0x01	; 1
    1524:	f1 f7       	brne	.-4      	; 0x1522 <_Z8lcd_initv+0x32>
    1526:	00 c0       	rjmp	.+0      	; 0x1528 <_Z8lcd_initv+0x38>
    1528:	00 00       	nop
	_delay_ms( LCD_SOFT_RESET_MS2 );
	
	lcd_enable();
    152a:	0e 94 3d 0a 	call	0x147a	; 0x147a <_ZL10lcd_enablev>
    152e:	8f e9       	ldi	r24, 0x9F	; 159
    1530:	9f e0       	ldi	r25, 0x0F	; 15
    1532:	01 97       	sbiw	r24, 0x01	; 1
    1534:	f1 f7       	brne	.-4      	; 0x1532 <_Z8lcd_initv+0x42>
    1536:	00 c0       	rjmp	.+0      	; 0x1538 <_Z8lcd_initv+0x48>
    1538:	00 00       	nop
	_delay_ms( LCD_SOFT_RESET_MS3 );
	
	// 4-bit Modus aktivieren
	lcd_out( LCD_SET_FUNCTION |
	LCD_FUNCTION_4BIT );
    153a:	80 e2       	ldi	r24, 0x20	; 32
    153c:	0e 94 44 0a 	call	0x1488	; 0x1488 <_ZL7lcd_outh>
    1540:	8f e1       	ldi	r24, 0x1F	; 31
    1542:	9e e4       	ldi	r25, 0x4E	; 78
    1544:	01 97       	sbiw	r24, 0x01	; 1
    1546:	f1 f7       	brne	.-4      	; 0x1544 <_Z8lcd_initv+0x54>
    1548:	00 c0       	rjmp	.+0      	; 0x154a <_Z8lcd_initv+0x5a>
    154a:	00 00       	nop
	
	// 4-bit Modus / 2 Zeilen / 5x7
	lcd_command( LCD_SET_FUNCTION |
	LCD_FUNCTION_4BIT |
	LCD_FUNCTION_2LINE |
	LCD_FUNCTION_5X7 );
    154c:	88 e2       	ldi	r24, 0x28	; 40
    154e:	0e 94 5f 0a 	call	0x14be	; 0x14be <_Z11lcd_commandh>
	
	// Display ein / Cursor aus / Blinken aus
	lcd_command( LCD_SET_DISPLAY |
	LCD_DISPLAY_ON |
	LCD_CURSOR_OFF |
	LCD_BLINKING_OFF);
    1552:	8c e0       	ldi	r24, 0x0C	; 12
    1554:	0e 94 5f 0a 	call	0x14be	; 0x14be <_Z11lcd_commandh>
	
	// Cursor inkrement / kein Scrollen
	lcd_command( LCD_SET_ENTRY |
	LCD_ENTRY_INCREASE |
	LCD_ENTRY_NOSHIFT );
    1558:	86 e0       	ldi	r24, 0x06	; 6
    155a:	0e 94 5f 0a 	call	0x14be	; 0x14be <_Z11lcd_commandh>
	
	lcd_clear();
    155e:	0e 94 6e 0a 	call	0x14dc	; 0x14dc <_Z9lcd_clearv>
    1562:	08 95       	ret

00001564 <_Z8lcd_homev>:

////////////////////////////////////////////////////////////////////////////////
// Sendet den Befehl: Cursor Home
void lcd_home( void )
{
	lcd_command( LCD_CURSOR_HOME );
    1564:	82 e0       	ldi	r24, 0x02	; 2
    1566:	0e 94 5f 0a 	call	0x14be	; 0x14be <_Z11lcd_commandh>
    156a:	8f e3       	ldi	r24, 0x3F	; 63
    156c:	9f e1       	ldi	r25, 0x1F	; 31
    156e:	01 97       	sbiw	r24, 0x01	; 1
    1570:	f1 f7       	brne	.-4      	; 0x156e <_Z8lcd_homev+0xa>
    1572:	00 c0       	rjmp	.+0      	; 0x1574 <_Z8lcd_homev+0x10>
    1574:	00 00       	nop
    1576:	08 95       	ret

00001578 <_Z13lcd_setcursorhh>:

void lcd_setcursor( uint8_t x, uint8_t y )
{
	uint8_t data;
	
	switch (y)
    1578:	62 30       	cpi	r22, 0x02	; 2
    157a:	59 f0       	breq	.+22     	; 0x1592 <_Z13lcd_setcursorhh+0x1a>
    157c:	18 f4       	brcc	.+6      	; 0x1584 <_Z13lcd_setcursorhh+0xc>
    157e:	61 30       	cpi	r22, 0x01	; 1
    1580:	31 f0       	breq	.+12     	; 0x158e <_Z13lcd_setcursorhh+0x16>
    1582:	08 95       	ret
    1584:	63 30       	cpi	r22, 0x03	; 3
    1586:	39 f0       	breq	.+14     	; 0x1596 <_Z13lcd_setcursorhh+0x1e>
    1588:	64 30       	cpi	r22, 0x04	; 4
    158a:	39 f0       	breq	.+14     	; 0x159a <_Z13lcd_setcursorhh+0x22>
    158c:	08 95       	ret
	{
		case 1:    // 1. Zeile
		data = LCD_SET_DDADR + LCD_DDADR_LINE1 + x;
    158e:	80 58       	subi	r24, 0x80	; 128
		break;
    1590:	05 c0       	rjmp	.+10     	; 0x159c <_Z13lcd_setcursorhh+0x24>
		
		case 2:    // 2. Zeile
		data = LCD_SET_DDADR + LCD_DDADR_LINE2 + x;
    1592:	80 54       	subi	r24, 0x40	; 64
		break;
    1594:	03 c0       	rjmp	.+6      	; 0x159c <_Z13lcd_setcursorhh+0x24>
		
		case 3:    // 3. Zeile
		data = LCD_SET_DDADR + LCD_DDADR_LINE3 + x;
    1596:	80 57       	subi	r24, 0x70	; 112
		break;
    1598:	01 c0       	rjmp	.+2      	; 0x159c <_Z13lcd_setcursorhh+0x24>
		
		case 4:    // 4. Zeile
		data = LCD_SET_DDADR + LCD_DDADR_LINE4 + x;
    159a:	80 53       	subi	r24, 0x30	; 48
		
		default:
		return;                                   // für den Fall einer falschen Zeile
	}
	
	lcd_command( data );
    159c:	0e 94 5f 0a 	call	0x14be	; 0x14be <_Z11lcd_commandh>
    15a0:	08 95       	ret

000015a2 <_Z10lcd_stringPKc>:

////////////////////////////////////////////////////////////////////////////////
// Schreibt einen String auf das LCD

void lcd_string( const char *data )
{
    15a2:	cf 93       	push	r28
    15a4:	df 93       	push	r29
    15a6:	ec 01       	movw	r28, r24
	while( *data != '\0' )
    15a8:	88 81       	ld	r24, Y
    15aa:	88 23       	and	r24, r24
    15ac:	31 f0       	breq	.+12     	; 0x15ba <_Z10lcd_stringPKc+0x18>
    15ae:	21 96       	adiw	r28, 0x01	; 1
		lcd_data( *data++ );
    15b0:	0e 94 4f 0a 	call	0x149e	; 0x149e <_Z8lcd_datah>
////////////////////////////////////////////////////////////////////////////////
// Schreibt einen String auf das LCD

void lcd_string( const char *data )
{
	while( *data != '\0' )
    15b4:	89 91       	ld	r24, Y+
    15b6:	81 11       	cpse	r24, r1
    15b8:	fb cf       	rjmp	.-10     	; 0x15b0 <_Z10lcd_stringPKc+0xe>
		lcd_data( *data++ );
}
    15ba:	df 91       	pop	r29
    15bc:	cf 91       	pop	r28
    15be:	08 95       	ret

000015c0 <_Z16lcd_generatecharhPKh>:

////////////////////////////////////////////////////////////////////////////////
// Schreibt ein Zeichen in den Character Generator RAM

void lcd_generatechar( uint8_t code, const uint8_t *data )
{
    15c0:	0f 93       	push	r16
    15c2:	1f 93       	push	r17
    15c4:	cf 93       	push	r28
    15c6:	df 93       	push	r29
    15c8:	8b 01       	movw	r16, r22
	// Startposition des Zeichens einstellen
	lcd_command( LCD_SET_CGADR | (code<<3) );
    15ca:	28 e0       	ldi	r18, 0x08	; 8
    15cc:	82 9f       	mul	r24, r18
    15ce:	c0 01       	movw	r24, r0
    15d0:	11 24       	eor	r1, r1
    15d2:	80 64       	ori	r24, 0x40	; 64
    15d4:	0e 94 5f 0a 	call	0x14be	; 0x14be <_Z11lcd_commandh>
    15d8:	e8 01       	movw	r28, r16
    15da:	08 5f       	subi	r16, 0xF8	; 248
    15dc:	1f 4f       	sbci	r17, 0xFF	; 255
	
	// Bitmuster übertragen
	for ( uint8_t i=0; i<8; i++ )
	{
		lcd_data( data[i] );
    15de:	89 91       	ld	r24, Y+
    15e0:	0e 94 4f 0a 	call	0x149e	; 0x149e <_Z8lcd_datah>
{
	// Startposition des Zeichens einstellen
	lcd_command( LCD_SET_CGADR | (code<<3) );
	
	// Bitmuster übertragen
	for ( uint8_t i=0; i<8; i++ )
    15e4:	c0 17       	cp	r28, r16
    15e6:	d1 07       	cpc	r29, r17
    15e8:	d1 f7       	brne	.-12     	; 0x15de <_Z16lcd_generatecharhPKh+0x1e>
	{
		lcd_data( data[i] );
	}
    15ea:	df 91       	pop	r29
    15ec:	cf 91       	pop	r28
    15ee:	1f 91       	pop	r17
    15f0:	0f 91       	pop	r16
    15f2:	08 95       	ret

000015f4 <_Z14vUpdateDisplayv>:
uint16_t cCurrentWert;


void vUpdateDisplay()
{
	ucUpdateDisplay = 0;
    15f4:	10 92 e9 05 	sts	0x05E9, r1	; 0x8005e9 <ucUpdateDisplay>
	
	lcd_clear();
    15f8:	0e 94 6e 0a 	call	0x14dc	; 0x14dc <_Z9lcd_clearv>
	lcd_home();
    15fc:	0e 94 b2 0a 	call	0x1564	; 0x1564 <_Z8lcd_homev>
	
	lcd_string(nDisplayPuffer.z1);
    1600:	82 e1       	ldi	r24, 0x12	; 18
    1602:	96 e0       	ldi	r25, 0x06	; 6
    1604:	0e 94 d1 0a 	call	0x15a2	; 0x15a2 <_Z10lcd_stringPKc>
	lcd_setcursor(0,2);
    1608:	62 e0       	ldi	r22, 0x02	; 2
    160a:	80 e0       	ldi	r24, 0x00	; 0
    160c:	0e 94 bc 0a 	call	0x1578	; 0x1578 <_Z13lcd_setcursorhh>
	lcd_string(nDisplayPuffer.z2);
    1610:	83 e2       	ldi	r24, 0x23	; 35
    1612:	96 e0       	ldi	r25, 0x06	; 6
    1614:	0e 94 d1 0a 	call	0x15a2	; 0x15a2 <_Z10lcd_stringPKc>
    1618:	08 95       	ret

0000161a <_Z10vWriteCharPcPKc>:
	}
	ctasteSpeicher = ctaste;
}

void vWriteChar(char * puf,const char * data)
{
    161a:	cf 93       	push	r28
    161c:	df 93       	push	r29
    161e:	9c 01       	movw	r18, r24
	for(int i= 0; i < 16; ++i)
	{
		puf[i]  = data[i];
    1620:	fb 01       	movw	r30, r22
    1622:	80 81       	ld	r24, Z
    1624:	f9 01       	movw	r30, r18
    1626:	80 83       	st	Z, r24
		if (data[i] == '\0')
    1628:	fb 01       	movw	r30, r22
    162a:	80 81       	ld	r24, Z
    162c:	88 23       	and	r24, r24
    162e:	71 f0       	breq	.+28     	; 0x164c <_Z10vWriteCharPcPKc+0x32>
    1630:	d9 01       	movw	r26, r18
    1632:	11 96       	adiw	r26, 0x01	; 1
    1634:	31 96       	adiw	r30, 0x01	; 1
    1636:	60 5f       	subi	r22, 0xF0	; 240
    1638:	7f 4f       	sbci	r23, 0xFF	; 255
    163a:	ef 01       	movw	r28, r30

void vWriteChar(char * puf,const char * data)
{
	for(int i= 0; i < 16; ++i)
	{
		puf[i]  = data[i];
    163c:	91 91       	ld	r25, Z+
    163e:	9d 93       	st	X+, r25
		if (data[i] == '\0')
    1640:	98 81       	ld	r25, Y
    1642:	99 23       	and	r25, r25
    1644:	19 f0       	breq	.+6      	; 0x164c <_Z10vWriteCharPcPKc+0x32>
	ctasteSpeicher = ctaste;
}

void vWriteChar(char * puf,const char * data)
{
	for(int i= 0; i < 16; ++i)
    1646:	e6 17       	cp	r30, r22
    1648:	f7 07       	cpc	r31, r23
    164a:	b9 f7       	brne	.-18     	; 0x163a <_Z10vWriteCharPcPKc+0x20>
	{
		puf[i]  = data[i];
		if (data[i] == '\0')
			break;
	}
	puf[16] = '\0';
    164c:	f9 01       	movw	r30, r18
    164e:	10 8a       	std	Z+16, r1	; 0x10
	ucUpdateDisplay = 1;
    1650:	81 e0       	ldi	r24, 0x01	; 1
    1652:	80 93 e9 05 	sts	0x05E9, r24	; 0x8005e9 <ucUpdateDisplay>
}
    1656:	df 91       	pop	r29
    1658:	cf 91       	pop	r28
    165a:	08 95       	ret

0000165c <_Z7reversePc>:
void reverse(char s[])
{
	int i, j;
	char c;
	
	for (i = 0, j = strlen(s)-1; i<j; i++, j--) {
    165c:	fc 01       	movw	r30, r24
    165e:	01 90       	ld	r0, Z+
    1660:	00 20       	and	r0, r0
    1662:	e9 f7       	brne	.-6      	; 0x165e <_Z7reversePc+0x2>
    1664:	31 97       	sbiw	r30, 0x01	; 1
    1666:	e8 1b       	sub	r30, r24
    1668:	f9 0b       	sbc	r31, r25
    166a:	9f 01       	movw	r18, r30
    166c:	21 50       	subi	r18, 0x01	; 1
    166e:	31 09       	sbc	r19, r1
    1670:	12 16       	cp	r1, r18
    1672:	13 06       	cpc	r1, r19
    1674:	7c f4       	brge	.+30     	; 0x1694 <_Z7reversePc+0x38>
    1676:	e8 0f       	add	r30, r24
    1678:	f9 1f       	adc	r31, r25
    167a:	dc 01       	movw	r26, r24
    167c:	80 e0       	ldi	r24, 0x00	; 0
    167e:	90 e0       	ldi	r25, 0x00	; 0
		c = s[i];
    1680:	4c 91       	ld	r20, X
		s[i] = s[j];
    1682:	52 91       	ld	r21, -Z
    1684:	5d 93       	st	X+, r21
		s[j] = c;
    1686:	40 83       	st	Z, r20
void reverse(char s[])
{
	int i, j;
	char c;
	
	for (i = 0, j = strlen(s)-1; i<j; i++, j--) {
    1688:	01 96       	adiw	r24, 0x01	; 1
    168a:	21 50       	subi	r18, 0x01	; 1
    168c:	31 09       	sbc	r19, r1
    168e:	82 17       	cp	r24, r18
    1690:	93 07       	cpc	r25, r19
    1692:	b4 f3       	brlt	.-20     	; 0x1680 <_Z7reversePc+0x24>
    1694:	08 95       	ret

00001696 <_Z12vDisplayWertPcj>:
		s[j] = c;
	}
}

void vDisplayWert(char * puf,uint16_t wWert)
{	
    1696:	af 92       	push	r10
    1698:	bf 92       	push	r11
    169a:	cf 92       	push	r12
    169c:	df 92       	push	r13
    169e:	ef 92       	push	r14
    16a0:	ff 92       	push	r15
    16a2:	0f 93       	push	r16
    16a4:	1f 93       	push	r17
    16a6:	cf 93       	push	r28
    16a8:	df 93       	push	r29
    16aa:	cd b7       	in	r28, 0x3d	; 61
    16ac:	de b7       	in	r29, 0x3e	; 62
    16ae:	61 97       	sbiw	r28, 0x11	; 17
    16b0:	0f b6       	in	r0, 0x3f	; 63
    16b2:	f8 94       	cli
    16b4:	de bf       	out	0x3e, r29	; 62
    16b6:	0f be       	out	0x3f, r0	; 63
    16b8:	cd bf       	out	0x3d, r28	; 61
    16ba:	7c 01       	movw	r14, r24
    16bc:	ab 01       	movw	r20, r22
	int i, sign;
	char zwischenpuffer[17]; 
	
	//puf += x;
	
	if ((sign = wWert) < 0)  /* record sign */
    16be:	5b 01       	movw	r10, r22
    16c0:	77 23       	and	r23, r23
    16c2:	1c f4       	brge	.+6      	; 0x16ca <_Z12vDisplayWertPcj+0x34>
		wWert = -wWert;          /* make n positive */
    16c4:	51 95       	neg	r21
    16c6:	41 95       	neg	r20
    16c8:	51 09       	sbc	r21, r1
    16ca:	8e 01       	movw	r16, r28
    16cc:	0f 5f       	subi	r16, 0xFF	; 255
    16ce:	1f 4f       	sbci	r17, 0xFF	; 255
		s[j] = c;
	}
}

void vDisplayWert(char * puf,uint16_t wWert)
{	
    16d0:	c1 2c       	mov	r12, r1
    16d2:	d1 2c       	mov	r13, r1
    16d4:	01 c0       	rjmp	.+2      	; 0x16d8 <_Z12vDisplayWertPcj+0x42>
	
	if ((sign = wWert) < 0)  /* record sign */
		wWert = -wWert;          /* make n positive */
	i = 0;
	do {       /* generate digits in reverse order */
		zwischenpuffer[i++] = wWert % 10 + '0';   /* get next digit */
    16d6:	6f 01       	movw	r12, r30
    16d8:	f6 01       	movw	r30, r12
    16da:	31 96       	adiw	r30, 0x01	; 1
    16dc:	9a 01       	movw	r18, r20
    16de:	ad ec       	ldi	r26, 0xCD	; 205
    16e0:	bc ec       	ldi	r27, 0xCC	; 204
    16e2:	0e 94 6a 18 	call	0x30d4	; 0x30d4 <__umulhisi3>
    16e6:	96 95       	lsr	r25
    16e8:	87 95       	ror	r24
    16ea:	96 95       	lsr	r25
    16ec:	87 95       	ror	r24
    16ee:	96 95       	lsr	r25
    16f0:	87 95       	ror	r24
    16f2:	9c 01       	movw	r18, r24
    16f4:	22 0f       	add	r18, r18
    16f6:	33 1f       	adc	r19, r19
    16f8:	88 0f       	add	r24, r24
    16fa:	99 1f       	adc	r25, r25
    16fc:	88 0f       	add	r24, r24
    16fe:	99 1f       	adc	r25, r25
    1700:	88 0f       	add	r24, r24
    1702:	99 1f       	adc	r25, r25
    1704:	82 0f       	add	r24, r18
    1706:	93 1f       	adc	r25, r19
    1708:	9a 01       	movw	r18, r20
    170a:	28 1b       	sub	r18, r24
    170c:	39 0b       	sbc	r19, r25
    170e:	c9 01       	movw	r24, r18
    1710:	80 5d       	subi	r24, 0xD0	; 208
    1712:	d8 01       	movw	r26, r16
    1714:	8d 93       	st	X+, r24
    1716:	8d 01       	movw	r16, r26
	//puf += x;
	
	if ((sign = wWert) < 0)  /* record sign */
		wWert = -wWert;          /* make n positive */
	i = 0;
	do {       /* generate digits in reverse order */
    1718:	9a 01       	movw	r18, r20
    171a:	ad ec       	ldi	r26, 0xCD	; 205
    171c:	bc ec       	ldi	r27, 0xCC	; 204
    171e:	0e 94 6a 18 	call	0x30d4	; 0x30d4 <__umulhisi3>
    1722:	ac 01       	movw	r20, r24
    1724:	56 95       	lsr	r21
    1726:	47 95       	ror	r20
    1728:	56 95       	lsr	r21
    172a:	47 95       	ror	r20
    172c:	56 95       	lsr	r21
    172e:	47 95       	ror	r20
    1730:	41 15       	cp	r20, r1
    1732:	51 05       	cpc	r21, r1
    1734:	81 f6       	brne	.-96     	; 0x16d6 <_Z12vDisplayWertPcj+0x40>
		zwischenpuffer[i++] = wWert % 10 + '0';   /* get next digit */
	} while ((wWert /= 10) > 0);     /* delete it */
	if (sign < 0)
    1736:	bb 20       	and	r11, r11
    1738:	34 f4       	brge	.+12     	; 0x1746 <_Z12vDisplayWertPcj+0xb0>
		zwischenpuffer[i++] = '-';
    173a:	ec 0f       	add	r30, r28
    173c:	fd 1f       	adc	r31, r29
    173e:	8d e2       	ldi	r24, 0x2D	; 45
    1740:	81 83       	std	Z+1, r24	; 0x01
    1742:	f6 01       	movw	r30, r12
    1744:	32 96       	adiw	r30, 0x02	; 2
	zwischenpuffer[i] = '\0';
    1746:	8e 01       	movw	r16, r28
    1748:	0f 5f       	subi	r16, 0xFF	; 255
    174a:	1f 4f       	sbci	r17, 0xFF	; 255
    174c:	e0 0f       	add	r30, r16
    174e:	f1 1f       	adc	r31, r17
    1750:	10 82       	st	Z, r1
	reverse(zwischenpuffer);
    1752:	c8 01       	movw	r24, r16
    1754:	0e 94 2e 0b 	call	0x165c	; 0x165c <_Z7reversePc>
	
	for(int i = strlen(puf)-1, j = strlen(zwischenpuffer)-1; i >= 0; --i)
    1758:	f7 01       	movw	r30, r14
    175a:	01 90       	ld	r0, Z+
    175c:	00 20       	and	r0, r0
    175e:	e9 f7       	brne	.-6      	; 0x175a <_Z12vDisplayWertPcj+0xc4>
    1760:	31 97       	sbiw	r30, 0x01	; 1
    1762:	ee 19       	sub	r30, r14
    1764:	ff 09       	sbc	r31, r15
    1766:	cf 01       	movw	r24, r30
    1768:	01 97       	sbiw	r24, 0x01	; 1
    176a:	d8 01       	movw	r26, r16
    176c:	0d 90       	ld	r0, X+
    176e:	00 20       	and	r0, r0
    1770:	e9 f7       	brne	.-6      	; 0x176c <_Z12vDisplayWertPcj+0xd6>
    1772:	ad 01       	movw	r20, r26
    1774:	40 1b       	sub	r20, r16
    1776:	51 0b       	sbc	r21, r17
    1778:	42 50       	subi	r20, 0x02	; 2
    177a:	51 09       	sbc	r21, r1
    177c:	99 23       	and	r25, r25
    177e:	c4 f0       	brlt	.+48     	; 0x17b0 <_Z12vDisplayWertPcj+0x11a>
    1780:	ee 0d       	add	r30, r14
    1782:	ff 1d       	adc	r31, r15
				puf[i] = zwischenpuffer[j];
				--j;
			}
			else
			{
				puf[i] = ' ';
    1784:	60 e2       	ldi	r22, 0x20	; 32
    1786:	31 97       	sbiw	r30, 0x01	; 1
	zwischenpuffer[i] = '\0';
	reverse(zwischenpuffer);
	
	for(int i = strlen(puf)-1, j = strlen(zwischenpuffer)-1; i >= 0; --i)
	{
		if(puf[i] == '#')
    1788:	20 81       	ld	r18, Z
    178a:	23 32       	cpi	r18, 0x23	; 35
    178c:	79 f4       	brne	.+30     	; 0x17ac <_Z12vDisplayWertPcj+0x116>
		{
			if ( j >= 0)
    178e:	55 23       	and	r21, r21
    1790:	64 f0       	brlt	.+24     	; 0x17aa <_Z12vDisplayWertPcj+0x114>
			{
				puf[i] = zwischenpuffer[j];
    1792:	21 e0       	ldi	r18, 0x01	; 1
    1794:	30 e0       	ldi	r19, 0x00	; 0
    1796:	2c 0f       	add	r18, r28
    1798:	3d 1f       	adc	r19, r29
    179a:	24 0f       	add	r18, r20
    179c:	35 1f       	adc	r19, r21
    179e:	d9 01       	movw	r26, r18
    17a0:	2c 91       	ld	r18, X
    17a2:	20 83       	st	Z, r18
				--j;
    17a4:	41 50       	subi	r20, 0x01	; 1
    17a6:	51 09       	sbc	r21, r1
    17a8:	01 c0       	rjmp	.+2      	; 0x17ac <_Z12vDisplayWertPcj+0x116>
			}
			else
			{
				puf[i] = ' ';
    17aa:	60 83       	st	Z, r22
	if (sign < 0)
		zwischenpuffer[i++] = '-';
	zwischenpuffer[i] = '\0';
	reverse(zwischenpuffer);
	
	for(int i = strlen(puf)-1, j = strlen(zwischenpuffer)-1; i >= 0; --i)
    17ac:	01 97       	sbiw	r24, 0x01	; 1
    17ae:	5a f7       	brpl	.-42     	; 0x1786 <_Z12vDisplayWertPcj+0xf0>
				puf[j] = ' '; 
		}
	}
	*/

	ucUpdateDisplay = 1;
    17b0:	81 e0       	ldi	r24, 0x01	; 1
    17b2:	80 93 e9 05 	sts	0x05E9, r24	; 0x8005e9 <ucUpdateDisplay>
}
    17b6:	61 96       	adiw	r28, 0x11	; 17
    17b8:	0f b6       	in	r0, 0x3f	; 63
    17ba:	f8 94       	cli
    17bc:	de bf       	out	0x3e, r29	; 62
    17be:	0f be       	out	0x3f, r0	; 63
    17c0:	cd bf       	out	0x3d, r28	; 61
    17c2:	df 91       	pop	r29
    17c4:	cf 91       	pop	r28
    17c6:	1f 91       	pop	r17
    17c8:	0f 91       	pop	r16
    17ca:	ff 90       	pop	r15
    17cc:	ef 90       	pop	r14
    17ce:	df 90       	pop	r13
    17d0:	cf 90       	pop	r12
    17d2:	bf 90       	pop	r11
    17d4:	af 90       	pop	r10
    17d6:	08 95       	ret

000017d8 <_Z18vAnzeigeBearbeitenv>:
	
	vAnzeigeBearbeiten();
}

void vAnzeigeBearbeiten()
{	
    17d8:	e2 e1       	ldi	r30, 0x12	; 18
    17da:	f6 e0       	ldi	r31, 0x06	; 6
    17dc:	22 e2       	ldi	r18, 0x22	; 34
    17de:	36 e0       	ldi	r19, 0x06	; 6
	for(int i = 0; i < 16; ++i)
	{
		nDisplayPuffer.z1[i] = ' ';
    17e0:	80 e2       	ldi	r24, 0x20	; 32
    17e2:	81 93       	st	Z+, r24
		nDisplayPuffer.z2[i] = ' ';
    17e4:	80 8b       	std	Z+16, r24	; 0x10
	vAnzeigeBearbeiten();
}

void vAnzeigeBearbeiten()
{	
	for(int i = 0; i < 16; ++i)
    17e6:	e2 17       	cp	r30, r18
    17e8:	f3 07       	cpc	r31, r19
    17ea:	d9 f7       	brne	.-10     	; 0x17e2 <_Z18vAnzeigeBearbeitenv+0xa>
	{
		nDisplayPuffer.z1[i] = ' ';
		nDisplayPuffer.z2[i] = ' ';
	}
	switch(cCurrentDisplay)
    17ec:	e0 91 11 06 	lds	r30, 0x0611	; 0x800611 <cCurrentDisplay>
    17f0:	8e 2f       	mov	r24, r30
    17f2:	90 e0       	ldi	r25, 0x00	; 0
    17f4:	81 32       	cpi	r24, 0x21	; 33
    17f6:	91 05       	cpc	r25, r1
    17f8:	08 f0       	brcs	.+2      	; 0x17fc <_Z18vAnzeigeBearbeitenv+0x24>
    17fa:	4d c3       	rjmp	.+1690   	; 0x1e96 <_Z18vAnzeigeBearbeitenv+0x6be>
    17fc:	fc 01       	movw	r30, r24
    17fe:	e6 5d       	subi	r30, 0xD6	; 214
    1800:	ff 4f       	sbci	r31, 0xFF	; 255
    1802:	0c 94 64 18 	jmp	0x30c8	; 0x30c8 <__tablejump2__>
	{
	case eDisplay_GrundAnz:
		if (disp == 0)
    1806:	80 91 d4 05 	lds	r24, 0x05D4	; 0x8005d4 <disp>
    180a:	81 11       	cpse	r24, r1
    180c:	74 c0       	rjmp	.+232    	; 0x18f6 <_Z18vAnzeigeBearbeitenv+0x11e>
		{
			switch(t_param1.status_ist)
    180e:	80 91 08 06 	lds	r24, 0x0608	; 0x800608 <t_param1+0xe>
    1812:	90 e0       	ldi	r25, 0x00	; 0
    1814:	87 30       	cpi	r24, 0x07	; 7
    1816:	91 05       	cpc	r25, r1
    1818:	08 f0       	brcs	.+2      	; 0x181c <_Z18vAnzeigeBearbeitenv+0x44>
    181a:	4a c0       	rjmp	.+148    	; 0x18b0 <_Z18vAnzeigeBearbeitenv+0xd8>
    181c:	fc 01       	movw	r30, r24
    181e:	e5 5b       	subi	r30, 0xB5	; 181
    1820:	ff 4f       	sbci	r31, 0xFF	; 255
    1822:	0c 94 64 18 	jmp	0x30c8	; 0x30c8 <__tablejump2__>
			{
				case eHeat_On:	
					vWriteChar(nDisplayPuffer.z1,"(1) Temp: ##.#\xdf\C "); 
    1826:	6f e3       	ldi	r22, 0x3F	; 63
    1828:	71 e0       	ldi	r23, 0x01	; 1
    182a:	82 e1       	ldi	r24, 0x12	; 18
    182c:	96 e0       	ldi	r25, 0x06	; 6
    182e:	0e 94 0d 0b 	call	0x161a	; 0x161a <_Z10vWriteCharPcPKc>
					set_status(eStatus_OK);
    1832:	80 e0       	ldi	r24, 0x00	; 0
    1834:	0e 94 fd 08 	call	0x11fa	; 0x11fa <_Z10set_status7ESTATUS>
					break;
    1838:	3b c0       	rjmp	.+118    	; 0x18b0 <_Z18vAnzeigeBearbeitenv+0xd8>
				case eHeat_Cooldown: 
					vWriteChar(nDisplayPuffer.z1,"(1)Temp: ##.#\xdf\C \x2A"); 
    183a:	61 e5       	ldi	r22, 0x51	; 81
    183c:	71 e0       	ldi	r23, 0x01	; 1
    183e:	82 e1       	ldi	r24, 0x12	; 18
    1840:	96 e0       	ldi	r25, 0x06	; 6
    1842:	0e 94 0d 0b 	call	0x161a	; 0x161a <_Z10vWriteCharPcPKc>
					set_status(eStatus_OK);
    1846:	80 e0       	ldi	r24, 0x00	; 0
    1848:	0e 94 fd 08 	call	0x11fa	; 0x11fa <_Z10set_status7ESTATUS>
					break;
    184c:	31 c0       	rjmp	.+98     	; 0x18b0 <_Z18vAnzeigeBearbeitenv+0xd8>
				case eHeat_SensorFail:
					vWriteChar(nDisplayPuffer.z1,"(1)Sens Def##.#\xdf\C");
    184e:	63 e6       	ldi	r22, 0x63	; 99
    1850:	71 e0       	ldi	r23, 0x01	; 1
    1852:	82 e1       	ldi	r24, 0x12	; 18
    1854:	96 e0       	ldi	r25, 0x06	; 6
    1856:	0e 94 0d 0b 	call	0x161a	; 0x161a <_Z10vWriteCharPcPKc>
					set_status(eStatus_Failure);
    185a:	82 e0       	ldi	r24, 0x02	; 2
    185c:	0e 94 fd 08 	call	0x11fa	; 0x11fa <_Z10set_status7ESTATUS>
					break;
    1860:	27 c0       	rjmp	.+78     	; 0x18b0 <_Z18vAnzeigeBearbeitenv+0xd8>
				case eHeat_NA:
					vWriteChar(nDisplayPuffer.z1,"(1)no support");
    1862:	65 e7       	ldi	r22, 0x75	; 117
    1864:	71 e0       	ldi	r23, 0x01	; 1
    1866:	82 e1       	ldi	r24, 0x12	; 18
    1868:	96 e0       	ldi	r25, 0x06	; 6
    186a:	0e 94 0d 0b 	call	0x161a	; 0x161a <_Z10vWriteCharPcPKc>
					set_status(eStatus_Failure);
    186e:	82 e0       	ldi	r24, 0x02	; 2
    1870:	0e 94 fd 08 	call	0x11fa	; 0x11fa <_Z10set_status7ESTATUS>
					break;
    1874:	1d c0       	rjmp	.+58     	; 0x18b0 <_Z18vAnzeigeBearbeitenv+0xd8>
				case eHeat_Overtemp:
					vWriteChar(nDisplayPuffer.z1,"(1)zu warm:##.#\xdf\C ");
    1876:	63 e8       	ldi	r22, 0x83	; 131
    1878:	71 e0       	ldi	r23, 0x01	; 1
    187a:	82 e1       	ldi	r24, 0x12	; 18
    187c:	96 e0       	ldi	r25, 0x06	; 6
    187e:	0e 94 0d 0b 	call	0x161a	; 0x161a <_Z10vWriteCharPcPKc>
					set_status(eStatus_Warning);
    1882:	81 e0       	ldi	r24, 0x01	; 1
    1884:	0e 94 fd 08 	call	0x11fa	; 0x11fa <_Z10set_status7ESTATUS>
					break;
    1888:	13 c0       	rjmp	.+38     	; 0x18b0 <_Z18vAnzeigeBearbeitenv+0xd8>
				case eHeat_CriticalOvertemp:
					vWriteChar(nDisplayPuffer.z1,"(1)BRANDGEFAHR!");
    188a:	66 e9       	ldi	r22, 0x96	; 150
    188c:	71 e0       	ldi	r23, 0x01	; 1
    188e:	82 e1       	ldi	r24, 0x12	; 18
    1890:	96 e0       	ldi	r25, 0x06	; 6
    1892:	0e 94 0d 0b 	call	0x161a	; 0x161a <_Z10vWriteCharPcPKc>
					set_status(eStatus_Failure);
    1896:	82 e0       	ldi	r24, 0x02	; 2
    1898:	0e 94 fd 08 	call	0x11fa	; 0x11fa <_Z10set_status7ESTATUS>
					break;
    189c:	09 c0       	rjmp	.+18     	; 0x18b0 <_Z18vAnzeigeBearbeitenv+0xd8>
				case eHeat_Off:
					vWriteChar(nDisplayPuffer.z1,"(1)Deaktiviert");
    189e:	66 ea       	ldi	r22, 0xA6	; 166
    18a0:	71 e0       	ldi	r23, 0x01	; 1
    18a2:	82 e1       	ldi	r24, 0x12	; 18
    18a4:	96 e0       	ldi	r25, 0x06	; 6
    18a6:	0e 94 0d 0b 	call	0x161a	; 0x161a <_Z10vWriteCharPcPKc>
					set_status(eStatus_Off);
    18aa:	83 e0       	ldi	r24, 0x03	; 3
    18ac:	0e 94 fd 08 	call	0x11fa	; 0x11fa <_Z10set_status7ESTATUS>
					break;
			}
			vWriteChar(nDisplayPuffer.z2," Feuchte: ##.#%");
    18b0:	65 eb       	ldi	r22, 0xB5	; 181
    18b2:	71 e0       	ldi	r23, 0x01	; 1
    18b4:	83 e2       	ldi	r24, 0x23	; 35
    18b6:	96 e0       	ldi	r25, 0x06	; 6
    18b8:	0e 94 0d 0b 	call	0x161a	; 0x161a <_Z10vWriteCharPcPKc>
			vDisplayWert(nDisplayPuffer.z1,Temp1);
    18bc:	60 91 d7 05 	lds	r22, 0x05D7	; 0x8005d7 <Temp1>
    18c0:	70 91 d8 05 	lds	r23, 0x05D8	; 0x8005d8 <Temp1+0x1>
    18c4:	82 e1       	ldi	r24, 0x12	; 18
    18c6:	96 e0       	ldi	r25, 0x06	; 6
    18c8:	0e 94 4b 0b 	call	0x1696	; 0x1696 <_Z12vDisplayWertPcj>
			vDisplayWert(nDisplayPuffer.z2,(uint16_t)(Hygrometer_1.f_humidity * 10));
    18cc:	20 e0       	ldi	r18, 0x00	; 0
    18ce:	30 e0       	ldi	r19, 0x00	; 0
    18d0:	40 e2       	ldi	r20, 0x20	; 32
    18d2:	51 e4       	ldi	r21, 0x41	; 65
    18d4:	60 91 e1 05 	lds	r22, 0x05E1	; 0x8005e1 <Hygrometer_1>
    18d8:	70 91 e2 05 	lds	r23, 0x05E2	; 0x8005e2 <Hygrometer_1+0x1>
    18dc:	80 91 e3 05 	lds	r24, 0x05E3	; 0x8005e3 <Hygrometer_1+0x2>
    18e0:	90 91 e4 05 	lds	r25, 0x05E4	; 0x8005e4 <Hygrometer_1+0x3>
    18e4:	0e 94 d5 17 	call	0x2faa	; 0x2faa <__mulsf3>
    18e8:	0e 94 ef 16 	call	0x2dde	; 0x2dde <__fixunssfsi>
    18ec:	83 e2       	ldi	r24, 0x23	; 35
    18ee:	96 e0       	ldi	r25, 0x06	; 6
    18f0:	0e 94 4b 0b 	call	0x1696	; 0x1696 <_Z12vDisplayWertPcj>
    18f4:	dc c2       	rjmp	.+1464   	; 0x1eae <_Z18vAnzeigeBearbeitenv+0x6d6>
			
		} 
		else if(disp == 1)
    18f6:	81 30       	cpi	r24, 0x01	; 1
    18f8:	09 f0       	breq	.+2      	; 0x18fc <_Z18vAnzeigeBearbeitenv+0x124>
    18fa:	d9 c2       	rjmp	.+1458   	; 0x1eae <_Z18vAnzeigeBearbeitenv+0x6d6>
		{
			switch(t_param2.status_ist)
    18fc:	80 91 f8 05 	lds	r24, 0x05F8	; 0x8005f8 <t_param2+0xe>
    1900:	90 e0       	ldi	r25, 0x00	; 0
    1902:	87 30       	cpi	r24, 0x07	; 7
    1904:	91 05       	cpc	r25, r1
    1906:	08 f0       	brcs	.+2      	; 0x190a <_Z18vAnzeigeBearbeitenv+0x132>
    1908:	4a c0       	rjmp	.+148    	; 0x199e <_Z18vAnzeigeBearbeitenv+0x1c6>
    190a:	fc 01       	movw	r30, r24
    190c:	ee 5a       	subi	r30, 0xAE	; 174
    190e:	ff 4f       	sbci	r31, 0xFF	; 255
    1910:	0c 94 64 18 	jmp	0x30c8	; 0x30c8 <__tablejump2__>
			{
				case eHeat_On:	
					vWriteChar(nDisplayPuffer.z1,"(2) Temp: ##.#\xdf\C "); 
    1914:	65 ec       	ldi	r22, 0xC5	; 197
    1916:	71 e0       	ldi	r23, 0x01	; 1
    1918:	82 e1       	ldi	r24, 0x12	; 18
    191a:	96 e0       	ldi	r25, 0x06	; 6
    191c:	0e 94 0d 0b 	call	0x161a	; 0x161a <_Z10vWriteCharPcPKc>
					set_status(eStatus_OK);
    1920:	80 e0       	ldi	r24, 0x00	; 0
    1922:	0e 94 fd 08 	call	0x11fa	; 0x11fa <_Z10set_status7ESTATUS>
					break;
    1926:	3b c0       	rjmp	.+118    	; 0x199e <_Z18vAnzeigeBearbeitenv+0x1c6>
				case eHeat_Cooldown: 
					vWriteChar(nDisplayPuffer.z1,"(2)Temp: ##.#\xdf\C \x2A"); 
    1928:	67 ed       	ldi	r22, 0xD7	; 215
    192a:	71 e0       	ldi	r23, 0x01	; 1
    192c:	82 e1       	ldi	r24, 0x12	; 18
    192e:	96 e0       	ldi	r25, 0x06	; 6
    1930:	0e 94 0d 0b 	call	0x161a	; 0x161a <_Z10vWriteCharPcPKc>
					set_status(eStatus_OK);
    1934:	80 e0       	ldi	r24, 0x00	; 0
    1936:	0e 94 fd 08 	call	0x11fa	; 0x11fa <_Z10set_status7ESTATUS>
					break;
    193a:	31 c0       	rjmp	.+98     	; 0x199e <_Z18vAnzeigeBearbeitenv+0x1c6>
				case eHeat_SensorFail:
					vWriteChar(nDisplayPuffer.z1,"(2)Sens Def##.#\xdf\C");
    193c:	69 ee       	ldi	r22, 0xE9	; 233
    193e:	71 e0       	ldi	r23, 0x01	; 1
    1940:	82 e1       	ldi	r24, 0x12	; 18
    1942:	96 e0       	ldi	r25, 0x06	; 6
    1944:	0e 94 0d 0b 	call	0x161a	; 0x161a <_Z10vWriteCharPcPKc>
					set_status(eStatus_Failure);
    1948:	82 e0       	ldi	r24, 0x02	; 2
    194a:	0e 94 fd 08 	call	0x11fa	; 0x11fa <_Z10set_status7ESTATUS>
					break;
    194e:	27 c0       	rjmp	.+78     	; 0x199e <_Z18vAnzeigeBearbeitenv+0x1c6>
				case eHeat_NA:
					vWriteChar(nDisplayPuffer.z1,"(2)no support");
    1950:	6b ef       	ldi	r22, 0xFB	; 251
    1952:	71 e0       	ldi	r23, 0x01	; 1
    1954:	82 e1       	ldi	r24, 0x12	; 18
    1956:	96 e0       	ldi	r25, 0x06	; 6
    1958:	0e 94 0d 0b 	call	0x161a	; 0x161a <_Z10vWriteCharPcPKc>
					set_status(eStatus_Failure);
    195c:	82 e0       	ldi	r24, 0x02	; 2
    195e:	0e 94 fd 08 	call	0x11fa	; 0x11fa <_Z10set_status7ESTATUS>
					break;
    1962:	1d c0       	rjmp	.+58     	; 0x199e <_Z18vAnzeigeBearbeitenv+0x1c6>
				case eHeat_Overtemp:
					vWriteChar(nDisplayPuffer.z1,"(2)zu warm:##.#\xdf\C ");
    1964:	69 e0       	ldi	r22, 0x09	; 9
    1966:	72 e0       	ldi	r23, 0x02	; 2
    1968:	82 e1       	ldi	r24, 0x12	; 18
    196a:	96 e0       	ldi	r25, 0x06	; 6
    196c:	0e 94 0d 0b 	call	0x161a	; 0x161a <_Z10vWriteCharPcPKc>
					set_status(eStatus_Warning);
    1970:	81 e0       	ldi	r24, 0x01	; 1
    1972:	0e 94 fd 08 	call	0x11fa	; 0x11fa <_Z10set_status7ESTATUS>
					break;
    1976:	13 c0       	rjmp	.+38     	; 0x199e <_Z18vAnzeigeBearbeitenv+0x1c6>
				case eHeat_CriticalOvertemp:
					vWriteChar(nDisplayPuffer.z1,"(2)BRANDGEFAHR!");
    1978:	6c e1       	ldi	r22, 0x1C	; 28
    197a:	72 e0       	ldi	r23, 0x02	; 2
    197c:	82 e1       	ldi	r24, 0x12	; 18
    197e:	96 e0       	ldi	r25, 0x06	; 6
    1980:	0e 94 0d 0b 	call	0x161a	; 0x161a <_Z10vWriteCharPcPKc>
					set_status(eStatus_Failure);
    1984:	82 e0       	ldi	r24, 0x02	; 2
    1986:	0e 94 fd 08 	call	0x11fa	; 0x11fa <_Z10set_status7ESTATUS>
					break;
    198a:	09 c0       	rjmp	.+18     	; 0x199e <_Z18vAnzeigeBearbeitenv+0x1c6>
				case eHeat_Off:
					vWriteChar(nDisplayPuffer.z1,"(2)Deaktiviert");
    198c:	6c e2       	ldi	r22, 0x2C	; 44
    198e:	72 e0       	ldi	r23, 0x02	; 2
    1990:	82 e1       	ldi	r24, 0x12	; 18
    1992:	96 e0       	ldi	r25, 0x06	; 6
    1994:	0e 94 0d 0b 	call	0x161a	; 0x161a <_Z10vWriteCharPcPKc>
					set_status(eStatus_Off);
    1998:	83 e0       	ldi	r24, 0x03	; 3
    199a:	0e 94 fd 08 	call	0x11fa	; 0x11fa <_Z10set_status7ESTATUS>
					break;
			}
			vWriteChar(nDisplayPuffer.z2," Feuchte: ##.#%");
    199e:	65 eb       	ldi	r22, 0xB5	; 181
    19a0:	71 e0       	ldi	r23, 0x01	; 1
    19a2:	83 e2       	ldi	r24, 0x23	; 35
    19a4:	96 e0       	ldi	r25, 0x06	; 6
    19a6:	0e 94 0d 0b 	call	0x161a	; 0x161a <_Z10vWriteCharPcPKc>
			vDisplayWert(nDisplayPuffer.z1,Temp2);
    19aa:	60 91 d5 05 	lds	r22, 0x05D5	; 0x8005d5 <Temp2>
    19ae:	70 91 d6 05 	lds	r23, 0x05D6	; 0x8005d6 <Temp2+0x1>
    19b2:	82 e1       	ldi	r24, 0x12	; 18
    19b4:	96 e0       	ldi	r25, 0x06	; 6
    19b6:	0e 94 4b 0b 	call	0x1696	; 0x1696 <_Z12vDisplayWertPcj>
			vDisplayWert(nDisplayPuffer.z2,(uint16_t)(Hygrometer_2.f_humidity * 10));
    19ba:	20 e0       	ldi	r18, 0x00	; 0
    19bc:	30 e0       	ldi	r19, 0x00	; 0
    19be:	40 e2       	ldi	r20, 0x20	; 32
    19c0:	51 e4       	ldi	r21, 0x41	; 65
    19c2:	60 91 d9 05 	lds	r22, 0x05D9	; 0x8005d9 <Hygrometer_2>
    19c6:	70 91 da 05 	lds	r23, 0x05DA	; 0x8005da <Hygrometer_2+0x1>
    19ca:	80 91 db 05 	lds	r24, 0x05DB	; 0x8005db <Hygrometer_2+0x2>
    19ce:	90 91 dc 05 	lds	r25, 0x05DC	; 0x8005dc <Hygrometer_2+0x3>
    19d2:	0e 94 d5 17 	call	0x2faa	; 0x2faa <__mulsf3>
    19d6:	0e 94 ef 16 	call	0x2dde	; 0x2dde <__fixunssfsi>
    19da:	83 e2       	ldi	r24, 0x23	; 35
    19dc:	96 e0       	ldi	r25, 0x06	; 6
    19de:	0e 94 4b 0b 	call	0x1696	; 0x1696 <_Z12vDisplayWertPcj>
    19e2:	65 c2       	rjmp	.+1226   	; 0x1eae <_Z18vAnzeigeBearbeitenv+0x6d6>
		nDisplayPuffer.z1[13] = 'C';
		nDisplayPuffer.z2[13] = 'C';
		*/
		break;
	case eDisplay_Menue1_Soll:
		vWriteChar(nDisplayPuffer.z1,"Sollwert");
    19e4:	6b e3       	ldi	r22, 0x3B	; 59
    19e6:	72 e0       	ldi	r23, 0x02	; 2
    19e8:	82 e1       	ldi	r24, 0x12	; 18
    19ea:	96 e0       	ldi	r25, 0x06	; 6
    19ec:	0e 94 0d 0b 	call	0x161a	; 0x161a <_Z10vWriteCharPcPKc>
		vWriteChar(nDisplayPuffer.z2,"Temperatur");
    19f0:	64 e4       	ldi	r22, 0x44	; 68
    19f2:	72 e0       	ldi	r23, 0x02	; 2
    19f4:	83 e2       	ldi	r24, 0x23	; 35
    19f6:	96 e0       	ldi	r25, 0x06	; 6
    19f8:	0e 94 0d 0b 	call	0x161a	; 0x161a <_Z10vWriteCharPcPKc>
		break;
    19fc:	58 c2       	rjmp	.+1200   	; 0x1eae <_Z18vAnzeigeBearbeitenv+0x6d6>
	case eDisplay_Menue1_hyster:
		vWriteChar(nDisplayPuffer.z1,"Schalthysterese");
    19fe:	6f e4       	ldi	r22, 0x4F	; 79
    1a00:	72 e0       	ldi	r23, 0x02	; 2
    1a02:	82 e1       	ldi	r24, 0x12	; 18
    1a04:	96 e0       	ldi	r25, 0x06	; 6
    1a06:	0e 94 0d 0b 	call	0x161a	; 0x161a <_Z10vWriteCharPcPKc>
		vWriteChar(nDisplayPuffer.z2,"");
    1a0a:	60 e5       	ldi	r22, 0x50	; 80
    1a0c:	71 e0       	ldi	r23, 0x01	; 1
    1a0e:	83 e2       	ldi	r24, 0x23	; 35
    1a10:	96 e0       	ldi	r25, 0x06	; 6
    1a12:	0e 94 0d 0b 	call	0x161a	; 0x161a <_Z10vWriteCharPcPKc>
		break;
    1a16:	4b c2       	rjmp	.+1174   	; 0x1eae <_Z18vAnzeigeBearbeitenv+0x6d6>
	case eDisplay_Menue1_offset:
		vWriteChar(nDisplayPuffer.z1,"Sensor");
    1a18:	6f e5       	ldi	r22, 0x5F	; 95
    1a1a:	72 e0       	ldi	r23, 0x02	; 2
    1a1c:	82 e1       	ldi	r24, 0x12	; 18
    1a1e:	96 e0       	ldi	r25, 0x06	; 6
    1a20:	0e 94 0d 0b 	call	0x161a	; 0x161a <_Z10vWriteCharPcPKc>
		vWriteChar(nDisplayPuffer.z2,"Kalibrierung");
    1a24:	66 e6       	ldi	r22, 0x66	; 102
    1a26:	72 e0       	ldi	r23, 0x02	; 2
    1a28:	83 e2       	ldi	r24, 0x23	; 35
    1a2a:	96 e0       	ldi	r25, 0x06	; 6
    1a2c:	0e 94 0d 0b 	call	0x161a	; 0x161a <_Z10vWriteCharPcPKc>
		break;
    1a30:	3e c2       	rjmp	.+1148   	; 0x1eae <_Z18vAnzeigeBearbeitenv+0x6d6>
	case eDisplay_Menue1_cool:
		vWriteChar(nDisplayPuffer.z1,"Abk\xf5hl");
    1a32:	63 e7       	ldi	r22, 0x73	; 115
    1a34:	72 e0       	ldi	r23, 0x02	; 2
    1a36:	82 e1       	ldi	r24, 0x12	; 18
    1a38:	96 e0       	ldi	r25, 0x06	; 6
    1a3a:	0e 94 0d 0b 	call	0x161a	; 0x161a <_Z10vWriteCharPcPKc>
		vWriteChar(nDisplayPuffer.z2,"Phasen");
    1a3e:	6a e7       	ldi	r22, 0x7A	; 122
    1a40:	72 e0       	ldi	r23, 0x02	; 2
    1a42:	83 e2       	ldi	r24, 0x23	; 35
    1a44:	96 e0       	ldi	r25, 0x06	; 6
    1a46:	0e 94 0d 0b 	call	0x161a	; 0x161a <_Z10vWriteCharPcPKc>
		break;
    1a4a:	31 c2       	rjmp	.+1122   	; 0x1eae <_Z18vAnzeigeBearbeitenv+0x6d6>
	case eDisplay_Menue1_WendeAnzahl:
		vWriteChar(nDisplayPuffer.z1,"Wendezahl");
    1a4c:	61 e8       	ldi	r22, 0x81	; 129
    1a4e:	72 e0       	ldi	r23, 0x02	; 2
    1a50:	82 e1       	ldi	r24, 0x12	; 18
    1a52:	96 e0       	ldi	r25, 0x06	; 6
    1a54:	0e 94 0d 0b 	call	0x161a	; 0x161a <_Z10vWriteCharPcPKc>
		vWriteChar(nDisplayPuffer.z2,"");
    1a58:	60 e5       	ldi	r22, 0x50	; 80
    1a5a:	71 e0       	ldi	r23, 0x01	; 1
    1a5c:	83 e2       	ldi	r24, 0x23	; 35
    1a5e:	96 e0       	ldi	r25, 0x06	; 6
    1a60:	0e 94 0d 0b 	call	0x161a	; 0x161a <_Z10vWriteCharPcPKc>
		break;
    1a64:	24 c2       	rjmp	.+1096   	; 0x1eae <_Z18vAnzeigeBearbeitenv+0x6d6>
	case eDisplay_Menue1_WendeZeit:
		vWriteChar(nDisplayPuffer.z1,"Wendedauer");
    1a66:	6b e8       	ldi	r22, 0x8B	; 139
    1a68:	72 e0       	ldi	r23, 0x02	; 2
    1a6a:	82 e1       	ldi	r24, 0x12	; 18
    1a6c:	96 e0       	ldi	r25, 0x06	; 6
    1a6e:	0e 94 0d 0b 	call	0x161a	; 0x161a <_Z10vWriteCharPcPKc>
		vWriteChar(nDisplayPuffer.z2,"");
    1a72:	60 e5       	ldi	r22, 0x50	; 80
    1a74:	71 e0       	ldi	r23, 0x01	; 1
    1a76:	83 e2       	ldi	r24, 0x23	; 35
    1a78:	96 e0       	ldi	r25, 0x06	; 6
    1a7a:	0e 94 0d 0b 	call	0x161a	; 0x161a <_Z10vWriteCharPcPKc>
		break;
    1a7e:	17 c2       	rjmp	.+1070   	; 0x1eae <_Z18vAnzeigeBearbeitenv+0x6d6>
	case eDisplay_Menue1_Enable:
		vWriteChar(nDisplayPuffer.z1,"R\xe1ume");
    1a80:	67 e1       	ldi	r22, 0x17	; 23
    1a82:	71 e0       	ldi	r23, 0x01	; 1
    1a84:	82 e1       	ldi	r24, 0x12	; 18
    1a86:	96 e0       	ldi	r25, 0x06	; 6
    1a88:	0e 94 0d 0b 	call	0x161a	; 0x161a <_Z10vWriteCharPcPKc>
		vWriteChar(nDisplayPuffer.z2,"EIN / AUS");
    1a8c:	66 e9       	ldi	r22, 0x96	; 150
    1a8e:	72 e0       	ldi	r23, 0x02	; 2
    1a90:	83 e2       	ldi	r24, 0x23	; 35
    1a92:	96 e0       	ldi	r25, 0x06	; 6
    1a94:	0e 94 0d 0b 	call	0x161a	; 0x161a <_Z10vWriteCharPcPKc>
		break;
    1a98:	0a c2       	rjmp	.+1044   	; 0x1eae <_Z18vAnzeigeBearbeitenv+0x6d6>
	case eDisplay_Menue1_Reset:
		vWriteChar(nDisplayPuffer.z1,"Zur\xf5\cksetzen");
    1a9a:	60 ea       	ldi	r22, 0xA0	; 160
    1a9c:	72 e0       	ldi	r23, 0x02	; 2
    1a9e:	82 e1       	ldi	r24, 0x12	; 18
    1aa0:	96 e0       	ldi	r25, 0x06	; 6
    1aa2:	0e 94 0d 0b 	call	0x161a	; 0x161a <_Z10vWriteCharPcPKc>
		vWriteChar(nDisplayPuffer.z2,"\x7f ESC       OK \x7E");
    1aa6:	6d ea       	ldi	r22, 0xAD	; 173
    1aa8:	72 e0       	ldi	r23, 0x02	; 2
    1aaa:	83 e2       	ldi	r24, 0x23	; 35
    1aac:	96 e0       	ldi	r25, 0x06	; 6
    1aae:	0e 94 0d 0b 	call	0x161a	; 0x161a <_Z10vWriteCharPcPKc>
		break;
    1ab2:	fd c1       	rjmp	.+1018   	; 0x1eae <_Z18vAnzeigeBearbeitenv+0x6d6>
	case eDisplay_Menue1_Regelparam:
		vWriteChar(nDisplayPuffer.z1,"Regelparameter");
    1ab4:	6e eb       	ldi	r22, 0xBE	; 190
    1ab6:	72 e0       	ldi	r23, 0x02	; 2
    1ab8:	82 e1       	ldi	r24, 0x12	; 18
    1aba:	96 e0       	ldi	r25, 0x06	; 6
    1abc:	0e 94 0d 0b 	call	0x161a	; 0x161a <_Z10vWriteCharPcPKc>
		vWriteChar(nDisplayPuffer.z2,"");
    1ac0:	60 e5       	ldi	r22, 0x50	; 80
    1ac2:	71 e0       	ldi	r23, 0x01	; 1
    1ac4:	83 e2       	ldi	r24, 0x23	; 35
    1ac6:	96 e0       	ldi	r25, 0x06	; 6
    1ac8:	0e 94 0d 0b 	call	0x161a	; 0x161a <_Z10vWriteCharPcPKc>
		break;	
    1acc:	f0 c1       	rjmp	.+992    	; 0x1eae <_Z18vAnzeigeBearbeitenv+0x6d6>
	case eDisplay_MenueRegelparam_Raum1:
		vWriteChar(nDisplayPuffer.z1,"Regelparameter");
    1ace:	6e eb       	ldi	r22, 0xBE	; 190
    1ad0:	72 e0       	ldi	r23, 0x02	; 2
    1ad2:	82 e1       	ldi	r24, 0x12	; 18
    1ad4:	96 e0       	ldi	r25, 0x06	; 6
    1ad6:	0e 94 0d 0b 	call	0x161a	; 0x161a <_Z10vWriteCharPcPKc>
		vWriteChar(nDisplayPuffer.z2,"Raum           1");
    1ada:	6d ec       	ldi	r22, 0xCD	; 205
    1adc:	72 e0       	ldi	r23, 0x02	; 2
    1ade:	83 e2       	ldi	r24, 0x23	; 35
    1ae0:	96 e0       	ldi	r25, 0x06	; 6
    1ae2:	0e 94 0d 0b 	call	0x161a	; 0x161a <_Z10vWriteCharPcPKc>
		break;
    1ae6:	e3 c1       	rjmp	.+966    	; 0x1eae <_Z18vAnzeigeBearbeitenv+0x6d6>
	case eDisplay_MenueRegelparam_Raum2:
		vWriteChar(nDisplayPuffer.z1,"Regelparameter");
    1ae8:	6e eb       	ldi	r22, 0xBE	; 190
    1aea:	72 e0       	ldi	r23, 0x02	; 2
    1aec:	82 e1       	ldi	r24, 0x12	; 18
    1aee:	96 e0       	ldi	r25, 0x06	; 6
    1af0:	0e 94 0d 0b 	call	0x161a	; 0x161a <_Z10vWriteCharPcPKc>
		vWriteChar(nDisplayPuffer.z2,"Raum           2");
    1af4:	6e ed       	ldi	r22, 0xDE	; 222
    1af6:	72 e0       	ldi	r23, 0x02	; 2
    1af8:	83 e2       	ldi	r24, 0x23	; 35
    1afa:	96 e0       	ldi	r25, 0x06	; 6
    1afc:	0e 94 0d 0b 	call	0x161a	; 0x161a <_Z10vWriteCharPcPKc>
		break;
    1b00:	d6 c1       	rjmp	.+940    	; 0x1eae <_Z18vAnzeigeBearbeitenv+0x6d6>
	case eDisplay_MenueSoll_Raum1:
		vWriteChar(nDisplayPuffer.z1,"Soll Raum 1");
    1b02:	6f ee       	ldi	r22, 0xEF	; 239
    1b04:	72 e0       	ldi	r23, 0x02	; 2
    1b06:	82 e1       	ldi	r24, 0x12	; 18
    1b08:	96 e0       	ldi	r25, 0x06	; 6
    1b0a:	0e 94 0d 0b 	call	0x161a	; 0x161a <_Z10vWriteCharPcPKc>
		vWriteChar(nDisplayPuffer.z2,"");
    1b0e:	60 e5       	ldi	r22, 0x50	; 80
    1b10:	71 e0       	ldi	r23, 0x01	; 1
    1b12:	83 e2       	ldi	r24, 0x23	; 35
    1b14:	96 e0       	ldi	r25, 0x06	; 6
    1b16:	0e 94 0d 0b 	call	0x161a	; 0x161a <_Z10vWriteCharPcPKc>
		break;
    1b1a:	c9 c1       	rjmp	.+914    	; 0x1eae <_Z18vAnzeigeBearbeitenv+0x6d6>
	case eDisplay_MenueSoll_Raum2:
		vWriteChar(nDisplayPuffer.z1,"Soll Raum 2");
    1b1c:	6b ef       	ldi	r22, 0xFB	; 251
    1b1e:	72 e0       	ldi	r23, 0x02	; 2
    1b20:	82 e1       	ldi	r24, 0x12	; 18
    1b22:	96 e0       	ldi	r25, 0x06	; 6
    1b24:	0e 94 0d 0b 	call	0x161a	; 0x161a <_Z10vWriteCharPcPKc>
		vWriteChar(nDisplayPuffer.z2,"");
    1b28:	60 e5       	ldi	r22, 0x50	; 80
    1b2a:	71 e0       	ldi	r23, 0x01	; 1
    1b2c:	83 e2       	ldi	r24, 0x23	; 35
    1b2e:	96 e0       	ldi	r25, 0x06	; 6
    1b30:	0e 94 0d 0b 	call	0x161a	; 0x161a <_Z10vWriteCharPcPKc>
		break;
    1b34:	bc c1       	rjmp	.+888    	; 0x1eae <_Z18vAnzeigeBearbeitenv+0x6d6>
	case eDisplay_MenueHyster_Raum1:
		vWriteChar(nDisplayPuffer.z1,"Hysterese 1");
    1b36:	67 e0       	ldi	r22, 0x07	; 7
    1b38:	73 e0       	ldi	r23, 0x03	; 3
    1b3a:	82 e1       	ldi	r24, 0x12	; 18
    1b3c:	96 e0       	ldi	r25, 0x06	; 6
    1b3e:	0e 94 0d 0b 	call	0x161a	; 0x161a <_Z10vWriteCharPcPKc>
		vWriteChar(nDisplayPuffer.z2,"");
    1b42:	60 e5       	ldi	r22, 0x50	; 80
    1b44:	71 e0       	ldi	r23, 0x01	; 1
    1b46:	83 e2       	ldi	r24, 0x23	; 35
    1b48:	96 e0       	ldi	r25, 0x06	; 6
    1b4a:	0e 94 0d 0b 	call	0x161a	; 0x161a <_Z10vWriteCharPcPKc>
		break;
    1b4e:	af c1       	rjmp	.+862    	; 0x1eae <_Z18vAnzeigeBearbeitenv+0x6d6>
	case eDisplay_MenueHyster_Raum2:
		vWriteChar(nDisplayPuffer.z1,"Hysterese 2");
    1b50:	63 e1       	ldi	r22, 0x13	; 19
    1b52:	73 e0       	ldi	r23, 0x03	; 3
    1b54:	82 e1       	ldi	r24, 0x12	; 18
    1b56:	96 e0       	ldi	r25, 0x06	; 6
    1b58:	0e 94 0d 0b 	call	0x161a	; 0x161a <_Z10vWriteCharPcPKc>
		vWriteChar(nDisplayPuffer.z2,"");
    1b5c:	60 e5       	ldi	r22, 0x50	; 80
    1b5e:	71 e0       	ldi	r23, 0x01	; 1
    1b60:	83 e2       	ldi	r24, 0x23	; 35
    1b62:	96 e0       	ldi	r25, 0x06	; 6
    1b64:	0e 94 0d 0b 	call	0x161a	; 0x161a <_Z10vWriteCharPcPKc>
		break;
    1b68:	a2 c1       	rjmp	.+836    	; 0x1eae <_Z18vAnzeigeBearbeitenv+0x6d6>
	case eDisplay_MenueOffset_Raum1:
		vWriteChar(nDisplayPuffer.z1,"Offset 1");
    1b6a:	6f e1       	ldi	r22, 0x1F	; 31
    1b6c:	73 e0       	ldi	r23, 0x03	; 3
    1b6e:	82 e1       	ldi	r24, 0x12	; 18
    1b70:	96 e0       	ldi	r25, 0x06	; 6
    1b72:	0e 94 0d 0b 	call	0x161a	; 0x161a <_Z10vWriteCharPcPKc>
		vWriteChar(nDisplayPuffer.z2,"");
    1b76:	60 e5       	ldi	r22, 0x50	; 80
    1b78:	71 e0       	ldi	r23, 0x01	; 1
    1b7a:	83 e2       	ldi	r24, 0x23	; 35
    1b7c:	96 e0       	ldi	r25, 0x06	; 6
    1b7e:	0e 94 0d 0b 	call	0x161a	; 0x161a <_Z10vWriteCharPcPKc>
		break;
    1b82:	95 c1       	rjmp	.+810    	; 0x1eae <_Z18vAnzeigeBearbeitenv+0x6d6>
	case eDisplay_MenueOffset_Raum2:
		vWriteChar(nDisplayPuffer.z1,"Offset 2");
    1b84:	68 e2       	ldi	r22, 0x28	; 40
    1b86:	73 e0       	ldi	r23, 0x03	; 3
    1b88:	82 e1       	ldi	r24, 0x12	; 18
    1b8a:	96 e0       	ldi	r25, 0x06	; 6
    1b8c:	0e 94 0d 0b 	call	0x161a	; 0x161a <_Z10vWriteCharPcPKc>
		vWriteChar(nDisplayPuffer.z2,"");
    1b90:	60 e5       	ldi	r22, 0x50	; 80
    1b92:	71 e0       	ldi	r23, 0x01	; 1
    1b94:	83 e2       	ldi	r24, 0x23	; 35
    1b96:	96 e0       	ldi	r25, 0x06	; 6
    1b98:	0e 94 0d 0b 	call	0x161a	; 0x161a <_Z10vWriteCharPcPKc>
		break;
    1b9c:	88 c1       	rjmp	.+784    	; 0x1eae <_Z18vAnzeigeBearbeitenv+0x6d6>
	case eDisplay_MenueCool_Raum1:
		vWriteChar(nDisplayPuffer.z1,"Cool 1");
    1b9e:	61 e3       	ldi	r22, 0x31	; 49
    1ba0:	73 e0       	ldi	r23, 0x03	; 3
    1ba2:	82 e1       	ldi	r24, 0x12	; 18
    1ba4:	96 e0       	ldi	r25, 0x06	; 6
    1ba6:	0e 94 0d 0b 	call	0x161a	; 0x161a <_Z10vWriteCharPcPKc>
		vWriteChar(nDisplayPuffer.z2,"");
    1baa:	60 e5       	ldi	r22, 0x50	; 80
    1bac:	71 e0       	ldi	r23, 0x01	; 1
    1bae:	83 e2       	ldi	r24, 0x23	; 35
    1bb0:	96 e0       	ldi	r25, 0x06	; 6
    1bb2:	0e 94 0d 0b 	call	0x161a	; 0x161a <_Z10vWriteCharPcPKc>
		break;
    1bb6:	7b c1       	rjmp	.+758    	; 0x1eae <_Z18vAnzeigeBearbeitenv+0x6d6>
	case eDisplay_MenueCool_Raum2:
		vWriteChar(nDisplayPuffer.z1,"Cool 2");
    1bb8:	68 e3       	ldi	r22, 0x38	; 56
    1bba:	73 e0       	ldi	r23, 0x03	; 3
    1bbc:	82 e1       	ldi	r24, 0x12	; 18
    1bbe:	96 e0       	ldi	r25, 0x06	; 6
    1bc0:	0e 94 0d 0b 	call	0x161a	; 0x161a <_Z10vWriteCharPcPKc>
		vWriteChar(nDisplayPuffer.z2,"");
    1bc4:	60 e5       	ldi	r22, 0x50	; 80
    1bc6:	71 e0       	ldi	r23, 0x01	; 1
    1bc8:	83 e2       	ldi	r24, 0x23	; 35
    1bca:	96 e0       	ldi	r25, 0x06	; 6
    1bcc:	0e 94 0d 0b 	call	0x161a	; 0x161a <_Z10vWriteCharPcPKc>
		break;
    1bd0:	6e c1       	rjmp	.+732    	; 0x1eae <_Z18vAnzeigeBearbeitenv+0x6d6>
	case eDisplay_MenueWendeAnzahl_Raum1:
		vWriteChar(nDisplayPuffer.z1,"Wendezahl 1");
    1bd2:	6f e3       	ldi	r22, 0x3F	; 63
    1bd4:	73 e0       	ldi	r23, 0x03	; 3
    1bd6:	82 e1       	ldi	r24, 0x12	; 18
    1bd8:	96 e0       	ldi	r25, 0x06	; 6
    1bda:	0e 94 0d 0b 	call	0x161a	; 0x161a <_Z10vWriteCharPcPKc>
		vWriteChar(nDisplayPuffer.z2,"");
    1bde:	60 e5       	ldi	r22, 0x50	; 80
    1be0:	71 e0       	ldi	r23, 0x01	; 1
    1be2:	83 e2       	ldi	r24, 0x23	; 35
    1be4:	96 e0       	ldi	r25, 0x06	; 6
    1be6:	0e 94 0d 0b 	call	0x161a	; 0x161a <_Z10vWriteCharPcPKc>
		break;
    1bea:	61 c1       	rjmp	.+706    	; 0x1eae <_Z18vAnzeigeBearbeitenv+0x6d6>
	case eDisplay_MenueWendeAnzahl_Raum2:
		vWriteChar(nDisplayPuffer.z1,"Wendezahl 2");
    1bec:	6b e4       	ldi	r22, 0x4B	; 75
    1bee:	73 e0       	ldi	r23, 0x03	; 3
    1bf0:	82 e1       	ldi	r24, 0x12	; 18
    1bf2:	96 e0       	ldi	r25, 0x06	; 6
    1bf4:	0e 94 0d 0b 	call	0x161a	; 0x161a <_Z10vWriteCharPcPKc>
		vWriteChar(nDisplayPuffer.z2,"");
    1bf8:	60 e5       	ldi	r22, 0x50	; 80
    1bfa:	71 e0       	ldi	r23, 0x01	; 1
    1bfc:	83 e2       	ldi	r24, 0x23	; 35
    1bfe:	96 e0       	ldi	r25, 0x06	; 6
    1c00:	0e 94 0d 0b 	call	0x161a	; 0x161a <_Z10vWriteCharPcPKc>
		break;
    1c04:	54 c1       	rjmp	.+680    	; 0x1eae <_Z18vAnzeigeBearbeitenv+0x6d6>
	case eDisplay_MenueEnable_Raum1:
		vWriteChar(nDisplayPuffer.z1,"Raum 1");
    1c06:	64 ef       	ldi	r22, 0xF4	; 244
    1c08:	72 e0       	ldi	r23, 0x02	; 2
    1c0a:	82 e1       	ldi	r24, 0x12	; 18
    1c0c:	96 e0       	ldi	r25, 0x06	; 6
    1c0e:	0e 94 0d 0b 	call	0x161a	; 0x161a <_Z10vWriteCharPcPKc>
		vWriteChar(nDisplayPuffer.z2,"EIN / AUS");
    1c12:	66 e9       	ldi	r22, 0x96	; 150
    1c14:	72 e0       	ldi	r23, 0x02	; 2
    1c16:	83 e2       	ldi	r24, 0x23	; 35
    1c18:	96 e0       	ldi	r25, 0x06	; 6
    1c1a:	0e 94 0d 0b 	call	0x161a	; 0x161a <_Z10vWriteCharPcPKc>
		break;
    1c1e:	47 c1       	rjmp	.+654    	; 0x1eae <_Z18vAnzeigeBearbeitenv+0x6d6>
	case eDisplay_MenueEnable_Raum2:
		vWriteChar(nDisplayPuffer.z1,"Raum 2");
    1c20:	60 e0       	ldi	r22, 0x00	; 0
    1c22:	73 e0       	ldi	r23, 0x03	; 3
    1c24:	82 e1       	ldi	r24, 0x12	; 18
    1c26:	96 e0       	ldi	r25, 0x06	; 6
    1c28:	0e 94 0d 0b 	call	0x161a	; 0x161a <_Z10vWriteCharPcPKc>
		vWriteChar(nDisplayPuffer.z2,"EIN / AUS");
    1c2c:	66 e9       	ldi	r22, 0x96	; 150
    1c2e:	72 e0       	ldi	r23, 0x02	; 2
    1c30:	83 e2       	ldi	r24, 0x23	; 35
    1c32:	96 e0       	ldi	r25, 0x06	; 6
    1c34:	0e 94 0d 0b 	call	0x161a	; 0x161a <_Z10vWriteCharPcPKc>
		break;
    1c38:	3a c1       	rjmp	.+628    	; 0x1eae <_Z18vAnzeigeBearbeitenv+0x6d6>
	case eDisplay_MenueWendeZeit_Raum1:
		vWriteChar(nDisplayPuffer.z1,"Wendezeit 1");
    1c3a:	67 e5       	ldi	r22, 0x57	; 87
    1c3c:	73 e0       	ldi	r23, 0x03	; 3
    1c3e:	82 e1       	ldi	r24, 0x12	; 18
    1c40:	96 e0       	ldi	r25, 0x06	; 6
    1c42:	0e 94 0d 0b 	call	0x161a	; 0x161a <_Z10vWriteCharPcPKc>
		vWriteChar(nDisplayPuffer.z2,"");
    1c46:	60 e5       	ldi	r22, 0x50	; 80
    1c48:	71 e0       	ldi	r23, 0x01	; 1
    1c4a:	83 e2       	ldi	r24, 0x23	; 35
    1c4c:	96 e0       	ldi	r25, 0x06	; 6
    1c4e:	0e 94 0d 0b 	call	0x161a	; 0x161a <_Z10vWriteCharPcPKc>
		break;
    1c52:	2d c1       	rjmp	.+602    	; 0x1eae <_Z18vAnzeigeBearbeitenv+0x6d6>
	case eDisplay_MenueWendeZeit_Raum2:
		vWriteChar(nDisplayPuffer.z1,"Wendezeit 2");
    1c54:	63 e6       	ldi	r22, 0x63	; 99
    1c56:	73 e0       	ldi	r23, 0x03	; 3
    1c58:	82 e1       	ldi	r24, 0x12	; 18
    1c5a:	96 e0       	ldi	r25, 0x06	; 6
    1c5c:	0e 94 0d 0b 	call	0x161a	; 0x161a <_Z10vWriteCharPcPKc>
		vWriteChar(nDisplayPuffer.z2,"");
    1c60:	60 e5       	ldi	r22, 0x50	; 80
    1c62:	71 e0       	ldi	r23, 0x01	; 1
    1c64:	83 e2       	ldi	r24, 0x23	; 35
    1c66:	96 e0       	ldi	r25, 0x06	; 6
    1c68:	0e 94 0d 0b 	call	0x161a	; 0x161a <_Z10vWriteCharPcPKc>
		break;
    1c6c:	20 c1       	rjmp	.+576    	; 0x1eae <_Z18vAnzeigeBearbeitenv+0x6d6>
	case eDisplay_MenueRegelparam_Kp1:
		vWriteChar(nDisplayPuffer.z1,"Regelparam. Kp 1");
    1c6e:	6f e6       	ldi	r22, 0x6F	; 111
    1c70:	73 e0       	ldi	r23, 0x03	; 3
    1c72:	82 e1       	ldi	r24, 0x12	; 18
    1c74:	96 e0       	ldi	r25, 0x06	; 6
    1c76:	0e 94 0d 0b 	call	0x161a	; 0x161a <_Z10vWriteCharPcPKc>
		vWriteChar(nDisplayPuffer.z2,"");
    1c7a:	60 e5       	ldi	r22, 0x50	; 80
    1c7c:	71 e0       	ldi	r23, 0x01	; 1
    1c7e:	83 e2       	ldi	r24, 0x23	; 35
    1c80:	96 e0       	ldi	r25, 0x06	; 6
    1c82:	0e 94 0d 0b 	call	0x161a	; 0x161a <_Z10vWriteCharPcPKc>
		break;
    1c86:	13 c1       	rjmp	.+550    	; 0x1eae <_Z18vAnzeigeBearbeitenv+0x6d6>
	case eDisplay_MenueRegelparam_Ki1:
		vWriteChar(nDisplayPuffer.z1,"Regelparam. Ki 1");
    1c88:	60 e8       	ldi	r22, 0x80	; 128
    1c8a:	73 e0       	ldi	r23, 0x03	; 3
    1c8c:	82 e1       	ldi	r24, 0x12	; 18
    1c8e:	96 e0       	ldi	r25, 0x06	; 6
    1c90:	0e 94 0d 0b 	call	0x161a	; 0x161a <_Z10vWriteCharPcPKc>
		vWriteChar(nDisplayPuffer.z2,"");
    1c94:	60 e5       	ldi	r22, 0x50	; 80
    1c96:	71 e0       	ldi	r23, 0x01	; 1
    1c98:	83 e2       	ldi	r24, 0x23	; 35
    1c9a:	96 e0       	ldi	r25, 0x06	; 6
    1c9c:	0e 94 0d 0b 	call	0x161a	; 0x161a <_Z10vWriteCharPcPKc>
		break;
    1ca0:	06 c1       	rjmp	.+524    	; 0x1eae <_Z18vAnzeigeBearbeitenv+0x6d6>
	case eDisplay_MenueRegelparam_Kd1:
		vWriteChar(nDisplayPuffer.z1,"Regelparam. Kd 1");
    1ca2:	61 e9       	ldi	r22, 0x91	; 145
    1ca4:	73 e0       	ldi	r23, 0x03	; 3
    1ca6:	82 e1       	ldi	r24, 0x12	; 18
    1ca8:	96 e0       	ldi	r25, 0x06	; 6
    1caa:	0e 94 0d 0b 	call	0x161a	; 0x161a <_Z10vWriteCharPcPKc>
		vWriteChar(nDisplayPuffer.z2,"");
    1cae:	60 e5       	ldi	r22, 0x50	; 80
    1cb0:	71 e0       	ldi	r23, 0x01	; 1
    1cb2:	83 e2       	ldi	r24, 0x23	; 35
    1cb4:	96 e0       	ldi	r25, 0x06	; 6
    1cb6:	0e 94 0d 0b 	call	0x161a	; 0x161a <_Z10vWriteCharPcPKc>
		break;
    1cba:	f9 c0       	rjmp	.+498    	; 0x1eae <_Z18vAnzeigeBearbeitenv+0x6d6>
	case eDisplay_MenueRegelparam_Kp2:
		vWriteChar(nDisplayPuffer.z1,"Regelparam. Kp 2");
    1cbc:	62 ea       	ldi	r22, 0xA2	; 162
    1cbe:	73 e0       	ldi	r23, 0x03	; 3
    1cc0:	82 e1       	ldi	r24, 0x12	; 18
    1cc2:	96 e0       	ldi	r25, 0x06	; 6
    1cc4:	0e 94 0d 0b 	call	0x161a	; 0x161a <_Z10vWriteCharPcPKc>
		vWriteChar(nDisplayPuffer.z2,"");
    1cc8:	60 e5       	ldi	r22, 0x50	; 80
    1cca:	71 e0       	ldi	r23, 0x01	; 1
    1ccc:	83 e2       	ldi	r24, 0x23	; 35
    1cce:	96 e0       	ldi	r25, 0x06	; 6
    1cd0:	0e 94 0d 0b 	call	0x161a	; 0x161a <_Z10vWriteCharPcPKc>
		break;
    1cd4:	ec c0       	rjmp	.+472    	; 0x1eae <_Z18vAnzeigeBearbeitenv+0x6d6>
	case eDisplay_MenueRegelparam_Ki2:
		vWriteChar(nDisplayPuffer.z1,"Regelparam. Ki 2");
    1cd6:	63 eb       	ldi	r22, 0xB3	; 179
    1cd8:	73 e0       	ldi	r23, 0x03	; 3
    1cda:	82 e1       	ldi	r24, 0x12	; 18
    1cdc:	96 e0       	ldi	r25, 0x06	; 6
    1cde:	0e 94 0d 0b 	call	0x161a	; 0x161a <_Z10vWriteCharPcPKc>
		vWriteChar(nDisplayPuffer.z2,"");
    1ce2:	60 e5       	ldi	r22, 0x50	; 80
    1ce4:	71 e0       	ldi	r23, 0x01	; 1
    1ce6:	83 e2       	ldi	r24, 0x23	; 35
    1ce8:	96 e0       	ldi	r25, 0x06	; 6
    1cea:	0e 94 0d 0b 	call	0x161a	; 0x161a <_Z10vWriteCharPcPKc>
		break;
    1cee:	df c0       	rjmp	.+446    	; 0x1eae <_Z18vAnzeigeBearbeitenv+0x6d6>
	case eDisplay_MenueRegelparam_Kd2:
		vWriteChar(nDisplayPuffer.z1,"Regelparam. Kd 2");
    1cf0:	64 ec       	ldi	r22, 0xC4	; 196
    1cf2:	73 e0       	ldi	r23, 0x03	; 3
    1cf4:	82 e1       	ldi	r24, 0x12	; 18
    1cf6:	96 e0       	ldi	r25, 0x06	; 6
    1cf8:	0e 94 0d 0b 	call	0x161a	; 0x161a <_Z10vWriteCharPcPKc>
		vWriteChar(nDisplayPuffer.z2,"");
    1cfc:	60 e5       	ldi	r22, 0x50	; 80
    1cfe:	71 e0       	ldi	r23, 0x01	; 1
    1d00:	83 e2       	ldi	r24, 0x23	; 35
    1d02:	96 e0       	ldi	r25, 0x06	; 6
    1d04:	0e 94 0d 0b 	call	0x161a	; 0x161a <_Z10vWriteCharPcPKc>
		break;
    1d08:	d2 c0       	rjmp	.+420    	; 0x1eae <_Z18vAnzeigeBearbeitenv+0x6d6>
	case eDisplay_WertBearbeiten:
		switch(cCurrentWert)
    1d0a:	e0 91 0d 06 	lds	r30, 0x060D	; 0x80060d <cCurrentWert>
    1d0e:	f0 91 0e 06 	lds	r31, 0x060E	; 0x80060e <cCurrentWert+0x1>
    1d12:	e4 31       	cpi	r30, 0x14	; 20
    1d14:	f1 05       	cpc	r31, r1
    1d16:	08 f0       	brcs	.+2      	; 0x1d1a <_Z18vAnzeigeBearbeitenv+0x542>
    1d18:	8f c0       	rjmp	.+286    	; 0x1e38 <_Z18vAnzeigeBearbeitenv+0x660>
    1d1a:	e7 5a       	subi	r30, 0xA7	; 167
    1d1c:	ff 4f       	sbci	r31, 0xFF	; 255
    1d1e:	0c 94 64 18 	jmp	0x30c8	; 0x30c8 <__tablejump2__>
		{														//  |..............     .|
			case ePara_Sollwert1: vWriteChar(nDisplayPuffer.z1,		"T_soll 1: ##.#\xdf\C"); break;
    1d22:	65 ed       	ldi	r22, 0xD5	; 213
    1d24:	73 e0       	ldi	r23, 0x03	; 3
    1d26:	82 e1       	ldi	r24, 0x12	; 18
    1d28:	96 e0       	ldi	r25, 0x06	; 6
    1d2a:	0e 94 0d 0b 	call	0x161a	; 0x161a <_Z10vWriteCharPcPKc>
    1d2e:	84 c0       	rjmp	.+264    	; 0x1e38 <_Z18vAnzeigeBearbeitenv+0x660>
			case ePara_Sollwert2: vWriteChar(nDisplayPuffer.z1,		"T_soll 2: ##.#\xdf\C"); break;
    1d30:	66 ee       	ldi	r22, 0xE6	; 230
    1d32:	73 e0       	ldi	r23, 0x03	; 3
    1d34:	82 e1       	ldi	r24, 0x12	; 18
    1d36:	96 e0       	ldi	r25, 0x06	; 6
    1d38:	0e 94 0d 0b 	call	0x161a	; 0x161a <_Z10vWriteCharPcPKc>
    1d3c:	7d c0       	rjmp	.+250    	; 0x1e38 <_Z18vAnzeigeBearbeitenv+0x660>
			case ePara_Offset1: vWriteChar(nDisplayPuffer.z1,		"Offset 1: ##.#\xdf\C"); break;
    1d3e:	67 ef       	ldi	r22, 0xF7	; 247
    1d40:	73 e0       	ldi	r23, 0x03	; 3
    1d42:	82 e1       	ldi	r24, 0x12	; 18
    1d44:	96 e0       	ldi	r25, 0x06	; 6
    1d46:	0e 94 0d 0b 	call	0x161a	; 0x161a <_Z10vWriteCharPcPKc>
    1d4a:	76 c0       	rjmp	.+236    	; 0x1e38 <_Z18vAnzeigeBearbeitenv+0x660>
			case ePara_Offset2: vWriteChar(nDisplayPuffer.z1,		"Offset 2: ##.#\xdf\C"); break;
    1d4c:	68 e0       	ldi	r22, 0x08	; 8
    1d4e:	74 e0       	ldi	r23, 0x04	; 4
    1d50:	82 e1       	ldi	r24, 0x12	; 18
    1d52:	96 e0       	ldi	r25, 0x06	; 6
    1d54:	0e 94 0d 0b 	call	0x161a	; 0x161a <_Z10vWriteCharPcPKc>
    1d58:	6f c0       	rjmp	.+222    	; 0x1e38 <_Z18vAnzeigeBearbeitenv+0x660>
			case ePara_Hysterese1: vWriteChar(nDisplayPuffer.z1,	"Hyst. 1:  ##.#\xdf\C"); break;
    1d5a:	69 e1       	ldi	r22, 0x19	; 25
    1d5c:	74 e0       	ldi	r23, 0x04	; 4
    1d5e:	82 e1       	ldi	r24, 0x12	; 18
    1d60:	96 e0       	ldi	r25, 0x06	; 6
    1d62:	0e 94 0d 0b 	call	0x161a	; 0x161a <_Z10vWriteCharPcPKc>
    1d66:	68 c0       	rjmp	.+208    	; 0x1e38 <_Z18vAnzeigeBearbeitenv+0x660>
			case ePara_Hysterese2: vWriteChar(nDisplayPuffer.z1,	"Hyst. 2:  ##.#\xdf\C"); break;
    1d68:	6a e2       	ldi	r22, 0x2A	; 42
    1d6a:	74 e0       	ldi	r23, 0x04	; 4
    1d6c:	82 e1       	ldi	r24, 0x12	; 18
    1d6e:	96 e0       	ldi	r25, 0x06	; 6
    1d70:	0e 94 0d 0b 	call	0x161a	; 0x161a <_Z10vWriteCharPcPKc>
    1d74:	61 c0       	rjmp	.+194    	; 0x1e38 <_Z18vAnzeigeBearbeitenv+0x660>
			case ePara_CoolDown1: vWriteChar(nDisplayPuffer.z1,		"Cool 1:  ###min"); break;
    1d76:	6b e3       	ldi	r22, 0x3B	; 59
    1d78:	74 e0       	ldi	r23, 0x04	; 4
    1d7a:	82 e1       	ldi	r24, 0x12	; 18
    1d7c:	96 e0       	ldi	r25, 0x06	; 6
    1d7e:	0e 94 0d 0b 	call	0x161a	; 0x161a <_Z10vWriteCharPcPKc>
    1d82:	5a c0       	rjmp	.+180    	; 0x1e38 <_Z18vAnzeigeBearbeitenv+0x660>
			case ePara_CoolDown2: vWriteChar(nDisplayPuffer.z1,		"Cool 2:  ###min"); break;
    1d84:	6b e4       	ldi	r22, 0x4B	; 75
    1d86:	74 e0       	ldi	r23, 0x04	; 4
    1d88:	82 e1       	ldi	r24, 0x12	; 18
    1d8a:	96 e0       	ldi	r25, 0x06	; 6
    1d8c:	0e 94 0d 0b 	call	0x161a	; 0x161a <_Z10vWriteCharPcPKc>
    1d90:	53 c0       	rjmp	.+166    	; 0x1e38 <_Z18vAnzeigeBearbeitenv+0x660>
			case ePara_Enable1: vWriteChar(nDisplayPuffer.z1,		"Raum 1:     ###"); break;
    1d92:	6b e5       	ldi	r22, 0x5B	; 91
    1d94:	74 e0       	ldi	r23, 0x04	; 4
    1d96:	82 e1       	ldi	r24, 0x12	; 18
    1d98:	96 e0       	ldi	r25, 0x06	; 6
    1d9a:	0e 94 0d 0b 	call	0x161a	; 0x161a <_Z10vWriteCharPcPKc>
    1d9e:	4c c0       	rjmp	.+152    	; 0x1e38 <_Z18vAnzeigeBearbeitenv+0x660>
			case ePara_Enable2: vWriteChar(nDisplayPuffer.z1,		"Raum 2:     ###"); break;
    1da0:	6b e6       	ldi	r22, 0x6B	; 107
    1da2:	74 e0       	ldi	r23, 0x04	; 4
    1da4:	82 e1       	ldi	r24, 0x12	; 18
    1da6:	96 e0       	ldi	r25, 0x06	; 6
    1da8:	0e 94 0d 0b 	call	0x161a	; 0x161a <_Z10vWriteCharPcPKc>
    1dac:	45 c0       	rjmp	.+138    	; 0x1e38 <_Z18vAnzeigeBearbeitenv+0x660>
			case ePara_WendeAnzahl1: vWriteChar(nDisplayPuffer.z1,	"Wenden 1: #/day"); break;
    1dae:	6b e7       	ldi	r22, 0x7B	; 123
    1db0:	74 e0       	ldi	r23, 0x04	; 4
    1db2:	82 e1       	ldi	r24, 0x12	; 18
    1db4:	96 e0       	ldi	r25, 0x06	; 6
    1db6:	0e 94 0d 0b 	call	0x161a	; 0x161a <_Z10vWriteCharPcPKc>
    1dba:	3e c0       	rjmp	.+124    	; 0x1e38 <_Z18vAnzeigeBearbeitenv+0x660>
			case ePara_WendeAnzahl2: vWriteChar(nDisplayPuffer.z1,	"Wenden 2: #/day"); break;
    1dbc:	6b e8       	ldi	r22, 0x8B	; 139
    1dbe:	74 e0       	ldi	r23, 0x04	; 4
    1dc0:	82 e1       	ldi	r24, 0x12	; 18
    1dc2:	96 e0       	ldi	r25, 0x06	; 6
    1dc4:	0e 94 0d 0b 	call	0x161a	; 0x161a <_Z10vWriteCharPcPKc>
    1dc8:	37 c0       	rjmp	.+110    	; 0x1e38 <_Z18vAnzeigeBearbeitenv+0x660>
			case ePara_WendeZeit1: vWriteChar(nDisplayPuffer.z1,	"Dauer 1:     ##s"); break;
    1dca:	6b e9       	ldi	r22, 0x9B	; 155
    1dcc:	74 e0       	ldi	r23, 0x04	; 4
    1dce:	82 e1       	ldi	r24, 0x12	; 18
    1dd0:	96 e0       	ldi	r25, 0x06	; 6
    1dd2:	0e 94 0d 0b 	call	0x161a	; 0x161a <_Z10vWriteCharPcPKc>
    1dd6:	30 c0       	rjmp	.+96     	; 0x1e38 <_Z18vAnzeigeBearbeitenv+0x660>
			case ePara_WendeZeit2: vWriteChar(nDisplayPuffer.z1,	"Dauer 2:     ##s"); break;
    1dd8:	6c ea       	ldi	r22, 0xAC	; 172
    1dda:	74 e0       	ldi	r23, 0x04	; 4
    1ddc:	82 e1       	ldi	r24, 0x12	; 18
    1dde:	96 e0       	ldi	r25, 0x06	; 6
    1de0:	0e 94 0d 0b 	call	0x161a	; 0x161a <_Z10vWriteCharPcPKc>
    1de4:	29 c0       	rjmp	.+82     	; 0x1e38 <_Z18vAnzeigeBearbeitenv+0x660>
			case ePara_Regelparam_Kp1: vWriteChar(nDisplayPuffer.z1,	"Kp 1:      ##.##"); break;
    1de6:	6d eb       	ldi	r22, 0xBD	; 189
    1de8:	74 e0       	ldi	r23, 0x04	; 4
    1dea:	82 e1       	ldi	r24, 0x12	; 18
    1dec:	96 e0       	ldi	r25, 0x06	; 6
    1dee:	0e 94 0d 0b 	call	0x161a	; 0x161a <_Z10vWriteCharPcPKc>
    1df2:	22 c0       	rjmp	.+68     	; 0x1e38 <_Z18vAnzeigeBearbeitenv+0x660>
			case ePara_Regelparam_Ki1: vWriteChar(nDisplayPuffer.z1,	"Ki 1:      ##.##"); break;
    1df4:	6e ec       	ldi	r22, 0xCE	; 206
    1df6:	74 e0       	ldi	r23, 0x04	; 4
    1df8:	82 e1       	ldi	r24, 0x12	; 18
    1dfa:	96 e0       	ldi	r25, 0x06	; 6
    1dfc:	0e 94 0d 0b 	call	0x161a	; 0x161a <_Z10vWriteCharPcPKc>
    1e00:	1b c0       	rjmp	.+54     	; 0x1e38 <_Z18vAnzeigeBearbeitenv+0x660>
			case ePara_Regelparam_Kd1: vWriteChar(nDisplayPuffer.z1,	"Kd 1:      ##.##"); break;
    1e02:	6f ed       	ldi	r22, 0xDF	; 223
    1e04:	74 e0       	ldi	r23, 0x04	; 4
    1e06:	82 e1       	ldi	r24, 0x12	; 18
    1e08:	96 e0       	ldi	r25, 0x06	; 6
    1e0a:	0e 94 0d 0b 	call	0x161a	; 0x161a <_Z10vWriteCharPcPKc>
    1e0e:	14 c0       	rjmp	.+40     	; 0x1e38 <_Z18vAnzeigeBearbeitenv+0x660>
			case ePara_Regelparam_Kp2: vWriteChar(nDisplayPuffer.z1,	"Kp 2:      ##.##"); break;
    1e10:	60 ef       	ldi	r22, 0xF0	; 240
    1e12:	74 e0       	ldi	r23, 0x04	; 4
    1e14:	82 e1       	ldi	r24, 0x12	; 18
    1e16:	96 e0       	ldi	r25, 0x06	; 6
    1e18:	0e 94 0d 0b 	call	0x161a	; 0x161a <_Z10vWriteCharPcPKc>
    1e1c:	0d c0       	rjmp	.+26     	; 0x1e38 <_Z18vAnzeigeBearbeitenv+0x660>
			case ePara_Regelparam_Ki2: vWriteChar(nDisplayPuffer.z1,	"Ki 2:      ##.##"); break;
    1e1e:	61 e0       	ldi	r22, 0x01	; 1
    1e20:	75 e0       	ldi	r23, 0x05	; 5
    1e22:	82 e1       	ldi	r24, 0x12	; 18
    1e24:	96 e0       	ldi	r25, 0x06	; 6
    1e26:	0e 94 0d 0b 	call	0x161a	; 0x161a <_Z10vWriteCharPcPKc>
    1e2a:	06 c0       	rjmp	.+12     	; 0x1e38 <_Z18vAnzeigeBearbeitenv+0x660>
			case ePara_Regelparam_Kd2: vWriteChar(nDisplayPuffer.z1,	"Kd 2:      ##.##"); break;
    1e2c:	62 e1       	ldi	r22, 0x12	; 18
    1e2e:	75 e0       	ldi	r23, 0x05	; 5
    1e30:	82 e1       	ldi	r24, 0x12	; 18
    1e32:	96 e0       	ldi	r25, 0x06	; 6
    1e34:	0e 94 0d 0b 	call	0x161a	; 0x161a <_Z10vWriteCharPcPKc>
		}
		vDisplayWert(nDisplayPuffer.z1,pwParameter[cCurrentWert]);
    1e38:	e0 91 0d 06 	lds	r30, 0x060D	; 0x80060d <cCurrentWert>
    1e3c:	f0 91 0e 06 	lds	r31, 0x060E	; 0x80060e <cCurrentWert+0x1>
    1e40:	ee 0f       	add	r30, r30
    1e42:	ff 1f       	adc	r31, r31
    1e44:	e2 58       	subi	r30, 0x82	; 130
    1e46:	fa 4f       	sbci	r31, 0xFA	; 250
    1e48:	60 81       	ld	r22, Z
    1e4a:	71 81       	ldd	r23, Z+1	; 0x01
    1e4c:	82 e1       	ldi	r24, 0x12	; 18
    1e4e:	96 e0       	ldi	r25, 0x06	; 6
    1e50:	0e 94 4b 0b 	call	0x1696	; 0x1696 <_Z12vDisplayWertPcj>
		
		if(pwParameter[cCurrentWert] == pwParameterSave[cCurrentWert])
    1e54:	80 91 0d 06 	lds	r24, 0x060D	; 0x80060d <cCurrentWert>
    1e58:	90 91 0e 06 	lds	r25, 0x060E	; 0x80060e <cCurrentWert+0x1>
    1e5c:	88 0f       	add	r24, r24
    1e5e:	99 1f       	adc	r25, r25
    1e60:	fc 01       	movw	r30, r24
    1e62:	e2 58       	subi	r30, 0x82	; 130
    1e64:	fa 4f       	sbci	r31, 0xFA	; 250
    1e66:	dc 01       	movw	r26, r24
    1e68:	aa 5a       	subi	r26, 0xAA	; 170
    1e6a:	ba 4f       	sbci	r27, 0xFA	; 250
    1e6c:	20 81       	ld	r18, Z
    1e6e:	31 81       	ldd	r19, Z+1	; 0x01
    1e70:	8d 91       	ld	r24, X+
    1e72:	9c 91       	ld	r25, X
    1e74:	28 17       	cp	r18, r24
    1e76:	39 07       	cpc	r19, r25
    1e78:	39 f4       	brne	.+14     	; 0x1e88 <_Z18vAnzeigeBearbeitenv+0x6b0>
		{
			vWriteChar(nDisplayPuffer.z2,"\x7f ESC");
    1e7a:	63 e2       	ldi	r22, 0x23	; 35
    1e7c:	75 e0       	ldi	r23, 0x05	; 5
    1e7e:	83 e2       	ldi	r24, 0x23	; 35
    1e80:	96 e0       	ldi	r25, 0x06	; 6
    1e82:	0e 94 0d 0b 	call	0x161a	; 0x161a <_Z10vWriteCharPcPKc>
    1e86:	13 c0       	rjmp	.+38     	; 0x1eae <_Z18vAnzeigeBearbeitenv+0x6d6>
		}
		else
		{
			vWriteChar(nDisplayPuffer.z2,"\x7f ESC     SAVE \x7E");			
    1e88:	69 e2       	ldi	r22, 0x29	; 41
    1e8a:	75 e0       	ldi	r23, 0x05	; 5
    1e8c:	83 e2       	ldi	r24, 0x23	; 35
    1e8e:	96 e0       	ldi	r25, 0x06	; 6
    1e90:	0e 94 0d 0b 	call	0x161a	; 0x161a <_Z10vWriteCharPcPKc>
    1e94:	0c c0       	rjmp	.+24     	; 0x1eae <_Z18vAnzeigeBearbeitenv+0x6d6>
		}
		break;		
	default:
	case eDisplay_Last:
		vWriteChar(nDisplayPuffer.z1,"Fehler");
    1e96:	6a e3       	ldi	r22, 0x3A	; 58
    1e98:	75 e0       	ldi	r23, 0x05	; 5
    1e9a:	82 e1       	ldi	r24, 0x12	; 18
    1e9c:	96 e0       	ldi	r25, 0x06	; 6
    1e9e:	0e 94 0d 0b 	call	0x161a	; 0x161a <_Z10vWriteCharPcPKc>
		vWriteChar(nDisplayPuffer.z2,"Text fehlt");
    1ea2:	61 e4       	ldi	r22, 0x41	; 65
    1ea4:	75 e0       	ldi	r23, 0x05	; 5
    1ea6:	83 e2       	ldi	r24, 0x23	; 35
    1ea8:	96 e0       	ldi	r25, 0x06	; 6
    1eaa:	0e 94 0d 0b 	call	0x161a	; 0x161a <_Z10vWriteCharPcPKc>
		break;		
	}
	
	nDisplayPuffer.z1[16] = 0;
    1eae:	e2 e1       	ldi	r30, 0x12	; 18
    1eb0:	f6 e0       	ldi	r31, 0x06	; 6
    1eb2:	10 8a       	std	Z+16, r1	; 0x10
	nDisplayPuffer.z2[16] = 0;
    1eb4:	11 a2       	std	Z+33, r1	; 0x21
    1eb6:	08 95       	ret

00001eb8 <_Z11vActionExeccj>:
	
	vActionExec(cAction,cPara);
}

void vActionExec(char cAction,uint16_t cPara)
{		
    1eb8:	0f 93       	push	r16
    1eba:	1f 93       	push	r17
    1ebc:	cf 93       	push	r28
    1ebe:	df 93       	push	r29
	switch(cAction)
    1ec0:	90 e0       	ldi	r25, 0x00	; 0
    1ec2:	fc 01       	movw	r30, r24
    1ec4:	31 97       	sbiw	r30, 0x01	; 1
    1ec6:	e4 31       	cpi	r30, 0x14	; 20
    1ec8:	f1 05       	cpc	r31, r1
    1eca:	08 f0       	brcs	.+2      	; 0x1ece <_Z11vActionExeccj+0x16>
    1ecc:	4d c1       	rjmp	.+666    	; 0x2168 <_Z11vActionExeccj+0x2b0>
    1ece:	e3 59       	subi	r30, 0x93	; 147
    1ed0:	ff 4f       	sbci	r31, 0xFF	; 255
    1ed2:	0c 94 64 18 	jmp	0x30c8	; 0x30c8 <__tablejump2__>
	{	
	case eAction_None:
		break;
	case eAction_SelectGrundMenue:
		{
			cDisplayMin = eDisplay_GrundAnz;	
    1ed6:	10 92 10 06 	sts	0x0610, r1	; 0x800610 <cDisplayMin>
			cDisplayMax = eDisplay_GrundAnz;
    1eda:	10 92 0f 06 	sts	0x060F, r1	; 0x80060f <cDisplayMax>
			cCurrentDisplay = eDisplay_GrundAnz;
    1ede:	10 92 11 06 	sts	0x0611, r1	; 0x800611 <cCurrentDisplay>
		}
		break;
    1ee2:	42 c1       	rjmp	.+644    	; 0x2168 <_Z11vActionExeccj+0x2b0>
	case eAction_SelectHauptMenue:
		{
			cCurrentDisplay = eDisplay_Menue1_Soll;
    1ee4:	81 e0       	ldi	r24, 0x01	; 1
    1ee6:	80 93 11 06 	sts	0x0611, r24	; 0x800611 <cCurrentDisplay>
			if (u8check_admin())
    1eea:	0e 94 e6 09 	call	0x13cc	; 0x13cc <_Z13u8check_adminv>
    1eee:	88 23       	and	r24, r24
    1ef0:	39 f0       	breq	.+14     	; 0x1f00 <_Z11vActionExeccj+0x48>
			{
				cDisplayMin = eDisplay_Menue1_Soll;
    1ef2:	81 e0       	ldi	r24, 0x01	; 1
    1ef4:	80 93 10 06 	sts	0x0610, r24	; 0x800610 <cDisplayMin>
				cDisplayMax = eDisplay_Menue1_Enable;
    1ef8:	89 e0       	ldi	r24, 0x09	; 9
    1efa:	80 93 0f 06 	sts	0x060F, r24	; 0x80060f <cDisplayMax>
    1efe:	34 c1       	rjmp	.+616    	; 0x2168 <_Z11vActionExeccj+0x2b0>
			} 
			else
			{
				cDisplayMin = eDisplay_Menue1_Soll;
    1f00:	81 e0       	ldi	r24, 0x01	; 1
    1f02:	80 93 10 06 	sts	0x0610, r24	; 0x800610 <cDisplayMin>
				cDisplayMax = eDisplay_Menue1_Reset;
    1f06:	86 e0       	ldi	r24, 0x06	; 6
    1f08:	80 93 0f 06 	sts	0x060F, r24	; 0x80060f <cDisplayMax>
    1f0c:	2d c1       	rjmp	.+602    	; 0x2168 <_Z11vActionExeccj+0x2b0>
			
		}
		break;
	case eAction_SelectSollMenue:
		{	
			cCurrentDisplay = eDisplay_MenueSoll_Raum1;
    1f0e:	8a e0       	ldi	r24, 0x0A	; 10
    1f10:	80 93 11 06 	sts	0x0611, r24	; 0x800611 <cCurrentDisplay>
			cDisplayMin = eDisplay_MenueSoll_Raum1;
    1f14:	80 93 10 06 	sts	0x0610, r24	; 0x800610 <cDisplayMin>
			cDisplayMax = eDisplay_MenueSoll_Raum2;
    1f18:	8b e0       	ldi	r24, 0x0B	; 11
    1f1a:	80 93 0f 06 	sts	0x060F, r24	; 0x80060f <cDisplayMax>
		}
		break;
    1f1e:	24 c1       	rjmp	.+584    	; 0x2168 <_Z11vActionExeccj+0x2b0>
	case eAction_SelectHysterMenue:
		{
			cCurrentDisplay = eDisplay_MenueHyster_Raum1;
    1f20:	8c e0       	ldi	r24, 0x0C	; 12
    1f22:	80 93 11 06 	sts	0x0611, r24	; 0x800611 <cCurrentDisplay>
			cDisplayMin = eDisplay_MenueHyster_Raum1;
    1f26:	80 93 10 06 	sts	0x0610, r24	; 0x800610 <cDisplayMin>
			cDisplayMax = eDisplay_MenueHyster_Raum2;
    1f2a:	8d e0       	ldi	r24, 0x0D	; 13
    1f2c:	80 93 0f 06 	sts	0x060F, r24	; 0x80060f <cDisplayMax>
		}
		break;
    1f30:	1b c1       	rjmp	.+566    	; 0x2168 <_Z11vActionExeccj+0x2b0>
	case eAction_SelectOffMenue:
		{
			cCurrentDisplay = eDisplay_MenueOffset_Raum1;
    1f32:	8e e0       	ldi	r24, 0x0E	; 14
    1f34:	80 93 11 06 	sts	0x0611, r24	; 0x800611 <cCurrentDisplay>
			cDisplayMin = eDisplay_MenueOffset_Raum1;
    1f38:	80 93 10 06 	sts	0x0610, r24	; 0x800610 <cDisplayMin>
			cDisplayMax = eDisplay_MenueOffset_Raum2;
    1f3c:	8f e0       	ldi	r24, 0x0F	; 15
    1f3e:	80 93 0f 06 	sts	0x060F, r24	; 0x80060f <cDisplayMax>
		}
		break;
    1f42:	12 c1       	rjmp	.+548    	; 0x2168 <_Z11vActionExeccj+0x2b0>
	case eAction_SelectCoolMenue:
		{
			cCurrentDisplay = eDisplay_MenueCool_Raum1;
    1f44:	80 e1       	ldi	r24, 0x10	; 16
    1f46:	80 93 11 06 	sts	0x0611, r24	; 0x800611 <cCurrentDisplay>
			cDisplayMin = eDisplay_MenueCool_Raum1;
    1f4a:	80 93 10 06 	sts	0x0610, r24	; 0x800610 <cDisplayMin>
			cDisplayMax = eDisplay_MenueCool_Raum2;
    1f4e:	81 e1       	ldi	r24, 0x11	; 17
    1f50:	80 93 0f 06 	sts	0x060F, r24	; 0x80060f <cDisplayMax>
		}
		break;
    1f54:	09 c1       	rjmp	.+530    	; 0x2168 <_Z11vActionExeccj+0x2b0>
	case eAction_SelectEnableMenue:
	{
		cCurrentDisplay = eDisplay_MenueEnable_Raum1;
    1f56:	86 e1       	ldi	r24, 0x16	; 22
    1f58:	80 93 11 06 	sts	0x0611, r24	; 0x800611 <cCurrentDisplay>
		cDisplayMin = eDisplay_MenueEnable_Raum1;
    1f5c:	80 93 10 06 	sts	0x0610, r24	; 0x800610 <cDisplayMin>
		cDisplayMax = eDisplay_MenueEnable_Raum2;
    1f60:	87 e1       	ldi	r24, 0x17	; 23
    1f62:	80 93 0f 06 	sts	0x060F, r24	; 0x80060f <cDisplayMax>
	}
	break;
    1f66:	00 c1       	rjmp	.+512    	; 0x2168 <_Z11vActionExeccj+0x2b0>
	case eAction_SelectWendeZeitMenue:
		{
			cCurrentDisplay = eDisplay_MenueWendeZeit_Raum1;
    1f68:	84 e1       	ldi	r24, 0x14	; 20
    1f6a:	80 93 11 06 	sts	0x0611, r24	; 0x800611 <cCurrentDisplay>
			cDisplayMin = eDisplay_MenueWendeZeit_Raum1;
    1f6e:	80 93 10 06 	sts	0x0610, r24	; 0x800610 <cDisplayMin>
			cDisplayMax = eDisplay_MenueWendeZeit_Raum2;
    1f72:	85 e1       	ldi	r24, 0x15	; 21
    1f74:	80 93 0f 06 	sts	0x060F, r24	; 0x80060f <cDisplayMax>
		}
		break;
    1f78:	f7 c0       	rjmp	.+494    	; 0x2168 <_Z11vActionExeccj+0x2b0>
	case eAction_SelectWendeAnzahlMenue:
		{
			cCurrentDisplay = eDisplay_MenueWendeAnzahl_Raum1;
    1f7a:	82 e1       	ldi	r24, 0x12	; 18
    1f7c:	80 93 11 06 	sts	0x0611, r24	; 0x800611 <cCurrentDisplay>
			cDisplayMin = eDisplay_MenueWendeAnzahl_Raum1;
    1f80:	80 93 10 06 	sts	0x0610, r24	; 0x800610 <cDisplayMin>
			cDisplayMax = eDisplay_MenueWendeAnzahl_Raum2;
    1f84:	83 e1       	ldi	r24, 0x13	; 19
    1f86:	80 93 0f 06 	sts	0x060F, r24	; 0x80060f <cDisplayMax>
		}
		break;
    1f8a:	ee c0       	rjmp	.+476    	; 0x2168 <_Z11vActionExeccj+0x2b0>
		
	case eAction_SelectRegelparamMenue:
		{
			cCurrentDisplay = eDisplay_MenueRegelparam_Raum1;
    1f8c:	88 e1       	ldi	r24, 0x18	; 24
    1f8e:	80 93 11 06 	sts	0x0611, r24	; 0x800611 <cCurrentDisplay>
			cDisplayMin =  eDisplay_MenueRegelparam_Raum1;;
    1f92:	80 93 10 06 	sts	0x0610, r24	; 0x800610 <cDisplayMin>
			cDisplayMax =  eDisplay_MenueRegelparam_Raum2;
    1f96:	89 e1       	ldi	r24, 0x19	; 25
    1f98:	80 93 0f 06 	sts	0x060F, r24	; 0x80060f <cDisplayMax>
		}
		break;
    1f9c:	e5 c0       	rjmp	.+458    	; 0x2168 <_Z11vActionExeccj+0x2b0>
	case eAction_SelectRegelparamMenue1:
		{
			cCurrentDisplay = eDisplay_MenueRegelparam_Kp1;
    1f9e:	8a e1       	ldi	r24, 0x1A	; 26
    1fa0:	80 93 11 06 	sts	0x0611, r24	; 0x800611 <cCurrentDisplay>
			cDisplayMin =  eDisplay_MenueRegelparam_Kp1;
    1fa4:	80 93 10 06 	sts	0x0610, r24	; 0x800610 <cDisplayMin>
			cDisplayMax =  eDisplay_MenueRegelparam_Kd1;
    1fa8:	8c e1       	ldi	r24, 0x1C	; 28
    1faa:	80 93 0f 06 	sts	0x060F, r24	; 0x80060f <cDisplayMax>
		}
			break;
    1fae:	dc c0       	rjmp	.+440    	; 0x2168 <_Z11vActionExeccj+0x2b0>
	case eAction_SelectRegelparamMenue2:
		{
			cCurrentDisplay = eDisplay_MenueRegelparam_Kp2;
    1fb0:	8d e1       	ldi	r24, 0x1D	; 29
    1fb2:	80 93 11 06 	sts	0x0611, r24	; 0x800611 <cCurrentDisplay>
			cDisplayMin =  eDisplay_MenueRegelparam_Kp2;
    1fb6:	80 93 10 06 	sts	0x0610, r24	; 0x800610 <cDisplayMin>
			cDisplayMax =  eDisplay_MenueRegelparam_Kd2;
    1fba:	8f e1       	ldi	r24, 0x1F	; 31
    1fbc:	80 93 0f 06 	sts	0x060F, r24	; 0x80060f <cDisplayMax>
		}
			break;
    1fc0:	d3 c0       	rjmp	.+422    	; 0x2168 <_Z11vActionExeccj+0x2b0>
	case eAction_MenueUp:
		{
			cCurrentDisplay++;
    1fc2:	80 91 11 06 	lds	r24, 0x0611	; 0x800611 <cCurrentDisplay>
    1fc6:	8f 5f       	subi	r24, 0xFF	; 255
    1fc8:	80 93 11 06 	sts	0x0611, r24	; 0x800611 <cCurrentDisplay>
			if (cCurrentDisplay > cDisplayMax)
    1fcc:	90 91 0f 06 	lds	r25, 0x060F	; 0x80060f <cDisplayMax>
    1fd0:	98 17       	cp	r25, r24
    1fd2:	08 f0       	brcs	.+2      	; 0x1fd6 <_Z11vActionExeccj+0x11e>
    1fd4:	c9 c0       	rjmp	.+402    	; 0x2168 <_Z11vActionExeccj+0x2b0>
				cCurrentDisplay = cDisplayMin;
    1fd6:	80 91 10 06 	lds	r24, 0x0610	; 0x800610 <cDisplayMin>
    1fda:	80 93 11 06 	sts	0x0611, r24	; 0x800611 <cCurrentDisplay>
    1fde:	c4 c0       	rjmp	.+392    	; 0x2168 <_Z11vActionExeccj+0x2b0>
		}		
		break;
	case eAction_MenueDown:
		{
			cCurrentDisplay--;
    1fe0:	80 91 11 06 	lds	r24, 0x0611	; 0x800611 <cCurrentDisplay>
    1fe4:	81 50       	subi	r24, 0x01	; 1
    1fe6:	80 93 11 06 	sts	0x0611, r24	; 0x800611 <cCurrentDisplay>
			if (cCurrentDisplay < cDisplayMin)
    1fea:	90 91 10 06 	lds	r25, 0x0610	; 0x800610 <cDisplayMin>
    1fee:	89 17       	cp	r24, r25
    1ff0:	08 f0       	brcs	.+2      	; 0x1ff4 <_Z11vActionExeccj+0x13c>
    1ff2:	ba c0       	rjmp	.+372    	; 0x2168 <_Z11vActionExeccj+0x2b0>
				cCurrentDisplay = cDisplayMax;
    1ff4:	80 91 0f 06 	lds	r24, 0x060F	; 0x80060f <cDisplayMax>
    1ff8:	80 93 11 06 	sts	0x0611, r24	; 0x800611 <cCurrentDisplay>
    1ffc:	b5 c0       	rjmp	.+362    	; 0x2168 <_Z11vActionExeccj+0x2b0>
		}
		break;
	case eAction_BearbeiteWert:
		{
			cCurrentWert = cPara;
    1ffe:	70 93 0e 06 	sts	0x060E, r23	; 0x80060e <cCurrentWert+0x1>
    2002:	60 93 0d 06 	sts	0x060D, r22	; 0x80060d <cCurrentWert>
									
			cCurrentDisplay = eDisplay_WertBearbeiten;
    2006:	80 e2       	ldi	r24, 0x20	; 32
    2008:	80 93 11 06 	sts	0x0611, r24	; 0x800611 <cCurrentDisplay>
			cDisplayMin = eDisplay_WertBearbeiten;
    200c:	80 93 10 06 	sts	0x0610, r24	; 0x800610 <cDisplayMin>
			cDisplayMax = eDisplay_WertBearbeiten;
    2010:	80 93 0f 06 	sts	0x060F, r24	; 0x80060f <cDisplayMax>
		}
		break;
    2014:	a9 c0       	rjmp	.+338    	; 0x2168 <_Z11vActionExeccj+0x2b0>
	case eAction_BearbeiteEsc:
		{
			pwParameter[cCurrentWert] = pwParameterSave[cCurrentWert];
    2016:	e0 91 0d 06 	lds	r30, 0x060D	; 0x80060d <cCurrentWert>
    201a:	f0 91 0e 06 	lds	r31, 0x060E	; 0x80060e <cCurrentWert+0x1>
    201e:	cf 01       	movw	r24, r30
    2020:	88 0f       	add	r24, r24
    2022:	99 1f       	adc	r25, r25
    2024:	dc 01       	movw	r26, r24
    2026:	a2 58       	subi	r26, 0x82	; 130
    2028:	ba 4f       	sbci	r27, 0xFA	; 250
    202a:	ec 01       	movw	r28, r24
    202c:	ca 5a       	subi	r28, 0xAA	; 170
    202e:	da 4f       	sbci	r29, 0xFA	; 250
    2030:	88 81       	ld	r24, Y
    2032:	99 81       	ldd	r25, Y+1	; 0x01
    2034:	8d 93       	st	X+, r24
    2036:	9c 93       	st	X, r25
			switch(cCurrentWert)
    2038:	e4 31       	cpi	r30, 0x14	; 20
    203a:	f1 05       	cpc	r31, r1
    203c:	08 f0       	brcs	.+2      	; 0x2040 <_Z11vActionExeccj+0x188>
    203e:	94 c0       	rjmp	.+296    	; 0x2168 <_Z11vActionExeccj+0x2b0>
    2040:	ef 57       	subi	r30, 0x7F	; 127
    2042:	ff 4f       	sbci	r31, 0xFF	; 255
    2044:	0c 94 64 18 	jmp	0x30c8	; 0x30c8 <__tablejump2__>
			{
			case ePara_Sollwert1:
			case ePara_Sollwert2: 
				vActionExec(eAction_SelectSollMenue,0);
    2048:	60 e0       	ldi	r22, 0x00	; 0
    204a:	70 e0       	ldi	r23, 0x00	; 0
    204c:	83 e0       	ldi	r24, 0x03	; 3
    204e:	0e 94 5c 0f 	call	0x1eb8	; 0x1eb8 <_Z11vActionExeccj>
				break;	
    2052:	8a c0       	rjmp	.+276    	; 0x2168 <_Z11vActionExeccj+0x2b0>
			case ePara_Hysterese1:
			case ePara_Hysterese2:
				vActionExec(eAction_SelectHysterMenue,0);
    2054:	60 e0       	ldi	r22, 0x00	; 0
    2056:	70 e0       	ldi	r23, 0x00	; 0
    2058:	84 e0       	ldi	r24, 0x04	; 4
    205a:	0e 94 5c 0f 	call	0x1eb8	; 0x1eb8 <_Z11vActionExeccj>
				break;
    205e:	84 c0       	rjmp	.+264    	; 0x2168 <_Z11vActionExeccj+0x2b0>
			case ePara_Offset1:
			case ePara_Offset2:
				vActionExec(eAction_SelectOffMenue,0);
    2060:	60 e0       	ldi	r22, 0x00	; 0
    2062:	70 e0       	ldi	r23, 0x00	; 0
    2064:	85 e0       	ldi	r24, 0x05	; 5
    2066:	0e 94 5c 0f 	call	0x1eb8	; 0x1eb8 <_Z11vActionExeccj>
				break;
    206a:	7e c0       	rjmp	.+252    	; 0x2168 <_Z11vActionExeccj+0x2b0>
			case ePara_CoolDown1:
			case ePara_CoolDown2:
				vActionExec(eAction_SelectCoolMenue,0);
    206c:	60 e0       	ldi	r22, 0x00	; 0
    206e:	70 e0       	ldi	r23, 0x00	; 0
    2070:	86 e0       	ldi	r24, 0x06	; 6
    2072:	0e 94 5c 0f 	call	0x1eb8	; 0x1eb8 <_Z11vActionExeccj>
				break;
    2076:	78 c0       	rjmp	.+240    	; 0x2168 <_Z11vActionExeccj+0x2b0>
			case ePara_Enable1:
			case ePara_Enable2:
				vActionExec(eAction_SelectEnableMenue,0);
    2078:	60 e0       	ldi	r22, 0x00	; 0
    207a:	70 e0       	ldi	r23, 0x00	; 0
    207c:	8c e0       	ldi	r24, 0x0C	; 12
    207e:	0e 94 5c 0f 	call	0x1eb8	; 0x1eb8 <_Z11vActionExeccj>
				break;
    2082:	72 c0       	rjmp	.+228    	; 0x2168 <_Z11vActionExeccj+0x2b0>
			case ePara_WendeAnzahl1:
			case ePara_WendeAnzahl2:
				vActionExec(eAction_SelectWendeAnzahlMenue,0);
    2084:	60 e0       	ldi	r22, 0x00	; 0
    2086:	70 e0       	ldi	r23, 0x00	; 0
    2088:	8b e0       	ldi	r24, 0x0B	; 11
    208a:	0e 94 5c 0f 	call	0x1eb8	; 0x1eb8 <_Z11vActionExeccj>
				break;
    208e:	6c c0       	rjmp	.+216    	; 0x2168 <_Z11vActionExeccj+0x2b0>
			case ePara_WendeZeit1:
			case ePara_WendeZeit2:
				vActionExec(eAction_SelectWendeZeitMenue,0);
    2090:	60 e0       	ldi	r22, 0x00	; 0
    2092:	70 e0       	ldi	r23, 0x00	; 0
    2094:	87 e0       	ldi	r24, 0x07	; 7
    2096:	0e 94 5c 0f 	call	0x1eb8	; 0x1eb8 <_Z11vActionExeccj>
				break;	
    209a:	66 c0       	rjmp	.+204    	; 0x2168 <_Z11vActionExeccj+0x2b0>
			case ePara_Regelparam_Kp1:
			case ePara_Regelparam_Ki1:
			case ePara_Regelparam_Kd1:
				vActionExec(eAction_SelectRegelparamMenue1,0);
    209c:	60 e0       	ldi	r22, 0x00	; 0
    209e:	70 e0       	ldi	r23, 0x00	; 0
    20a0:	89 e0       	ldi	r24, 0x09	; 9
    20a2:	0e 94 5c 0f 	call	0x1eb8	; 0x1eb8 <_Z11vActionExeccj>
				break;
    20a6:	60 c0       	rjmp	.+192    	; 0x2168 <_Z11vActionExeccj+0x2b0>
			case ePara_Regelparam_Kp2:
			case ePara_Regelparam_Ki2:
			case ePara_Regelparam_Kd2:
				vActionExec(eAction_SelectRegelparamMenue2,0);
    20a8:	60 e0       	ldi	r22, 0x00	; 0
    20aa:	70 e0       	ldi	r23, 0x00	; 0
    20ac:	8a e0       	ldi	r24, 0x0A	; 10
    20ae:	0e 94 5c 0f 	call	0x1eb8	; 0x1eb8 <_Z11vActionExeccj>
				break;
    20b2:	5a c0       	rjmp	.+180    	; 0x2168 <_Z11vActionExeccj+0x2b0>
			}			
		}
		break;
	case eAction_ResetParameter:
		{
			vSetSound_ms(100);
    20b4:	84 e6       	ldi	r24, 0x64	; 100
    20b6:	90 e0       	ldi	r25, 0x00	; 0
    20b8:	0e 94 0b 0a 	call	0x1416	; 0x1416 <_Z12vSetSound_msj>
    20bc:	0a e9       	ldi	r16, 0x9A	; 154
    20be:	10 e0       	ldi	r17, 0x00	; 0
			for(int i = 0; i < ePara_Last; ++i)
    20c0:	c0 e0       	ldi	r28, 0x00	; 0
    20c2:	d0 e0       	ldi	r29, 0x00	; 0
			{
				vSaveParaWert(i,pwParameterDef[i]);
    20c4:	f8 01       	movw	r30, r16
    20c6:	61 91       	ld	r22, Z+
    20c8:	71 91       	ld	r23, Z+
    20ca:	8f 01       	movw	r16, r30
    20cc:	ce 01       	movw	r24, r28
    20ce:	0e 94 73 05 	call	0xae6	; 0xae6 <_Z13vSaveParaWertii>
		}
		break;
	case eAction_ResetParameter:
		{
			vSetSound_ms(100);
			for(int i = 0; i < ePara_Last; ++i)
    20d2:	21 96       	adiw	r28, 0x01	; 1
    20d4:	c4 31       	cpi	r28, 0x14	; 20
    20d6:	d1 05       	cpc	r29, r1
    20d8:	a9 f7       	brne	.-22     	; 0x20c4 <_Z11vActionExeccj+0x20c>
    20da:	46 c0       	rjmp	.+140    	; 0x2168 <_Z11vActionExeccj+0x2b0>
			}
			break;
		}
	case eAction_SpeicherWert:
		{
			vSetSound_ms(5);
    20dc:	85 e0       	ldi	r24, 0x05	; 5
    20de:	90 e0       	ldi	r25, 0x00	; 0
    20e0:	0e 94 0b 0a 	call	0x1416	; 0x1416 <_Z12vSetSound_msj>
			vSavePara(cCurrentWert);
    20e4:	80 91 0d 06 	lds	r24, 0x060D	; 0x80060d <cCurrentWert>
    20e8:	90 91 0e 06 	lds	r25, 0x060E	; 0x80060e <cCurrentWert+0x1>
    20ec:	0e 94 55 05 	call	0xaaa	; 0xaaa <_Z9vSaveParai>
		}		
		break;
    20f0:	3b c0       	rjmp	.+118    	; 0x2168 <_Z11vActionExeccj+0x2b0>
	case eAction_WertUp:
		{
			if(pwParameter[cCurrentWert] < pwParameterMax[cCurrentWert])
    20f2:	20 91 0d 06 	lds	r18, 0x060D	; 0x80060d <cCurrentWert>
    20f6:	30 91 0e 06 	lds	r19, 0x060E	; 0x80060e <cCurrentWert+0x1>
    20fa:	c9 01       	movw	r24, r18
    20fc:	88 0f       	add	r24, r24
    20fe:	99 1f       	adc	r25, r25
    2100:	fc 01       	movw	r30, r24
    2102:	e2 58       	subi	r30, 0x82	; 130
    2104:	fa 4f       	sbci	r31, 0xFA	; 250
    2106:	40 81       	ld	r20, Z
    2108:	51 81       	ldd	r21, Z+1	; 0x01
    210a:	fc 01       	movw	r30, r24
    210c:	ee 53       	subi	r30, 0x3E	; 62
    210e:	ff 4f       	sbci	r31, 0xFF	; 255
    2110:	80 81       	ld	r24, Z
    2112:	91 81       	ldd	r25, Z+1	; 0x01
    2114:	48 17       	cp	r20, r24
    2116:	59 07       	cpc	r21, r25
    2118:	3c f5       	brge	.+78     	; 0x2168 <_Z11vActionExeccj+0x2b0>
				pwParameter[cCurrentWert]++;
    211a:	22 0f       	add	r18, r18
    211c:	33 1f       	adc	r19, r19
    211e:	f9 01       	movw	r30, r18
    2120:	e2 58       	subi	r30, 0x82	; 130
    2122:	fa 4f       	sbci	r31, 0xFA	; 250
    2124:	4f 5f       	subi	r20, 0xFF	; 255
    2126:	5f 4f       	sbci	r21, 0xFF	; 255
    2128:	51 83       	std	Z+1, r21	; 0x01
    212a:	40 83       	st	Z, r20
    212c:	1d c0       	rjmp	.+58     	; 0x2168 <_Z11vActionExeccj+0x2b0>
		}
		break;
	case eAction_WertDown:
		{
			if(pwParameter[cCurrentWert] > pwParameterMin[cCurrentWert])
    212e:	80 91 0d 06 	lds	r24, 0x060D	; 0x80060d <cCurrentWert>
    2132:	90 91 0e 06 	lds	r25, 0x060E	; 0x80060e <cCurrentWert+0x1>
    2136:	9c 01       	movw	r18, r24
    2138:	22 0f       	add	r18, r18
    213a:	33 1f       	adc	r19, r19
    213c:	f9 01       	movw	r30, r18
    213e:	e2 58       	subi	r30, 0x82	; 130
    2140:	fa 4f       	sbci	r31, 0xFA	; 250
    2142:	40 81       	ld	r20, Z
    2144:	51 81       	ldd	r21, Z+1	; 0x01
    2146:	f9 01       	movw	r30, r18
    2148:	e6 51       	subi	r30, 0x16	; 22
    214a:	ff 4f       	sbci	r31, 0xFF	; 255
    214c:	20 81       	ld	r18, Z
    214e:	31 81       	ldd	r19, Z+1	; 0x01
    2150:	24 17       	cp	r18, r20
    2152:	35 07       	cpc	r19, r21
    2154:	4c f4       	brge	.+18     	; 0x2168 <_Z11vActionExeccj+0x2b0>
				pwParameter[cCurrentWert]--;
    2156:	88 0f       	add	r24, r24
    2158:	99 1f       	adc	r25, r25
    215a:	fc 01       	movw	r30, r24
    215c:	e2 58       	subi	r30, 0x82	; 130
    215e:	fa 4f       	sbci	r31, 0xFA	; 250
    2160:	41 50       	subi	r20, 0x01	; 1
    2162:	51 09       	sbc	r21, r1
    2164:	51 83       	std	Z+1, r21	; 0x01
    2166:	40 83       	st	Z, r20
		
		}
		break;
	}
	
	vAnzeigeBearbeiten();
    2168:	0e 94 ec 0b 	call	0x17d8	; 0x17d8 <_Z18vAnzeigeBearbeitenv>
}
    216c:	df 91       	pop	r29
    216e:	cf 91       	pop	r28
    2170:	1f 91       	pop	r17
    2172:	0f 91       	pop	r16
    2174:	08 95       	ret

00002176 <_Z16vTasteBearbeitenc>:

void vTasteBearbeiten(const char ctaste)
{
	char cAction = eAction_None;
	uint16_t cPara = 0;
	display_active = 1200;
    2176:	20 eb       	ldi	r18, 0xB0	; 176
    2178:	34 e0       	ldi	r19, 0x04	; 4
    217a:	30 93 61 00 	sts	0x0061, r19	; 0x800061 <__data_start+0x1>
    217e:	20 93 60 00 	sts	0x0060, r18	; 0x800060 <__data_start>
	
	switch(cCurrentDisplay)
    2182:	e0 91 11 06 	lds	r30, 0x0611	; 0x800611 <cCurrentDisplay>
    2186:	4e 2f       	mov	r20, r30
    2188:	50 e0       	ldi	r21, 0x00	; 0
    218a:	41 32       	cpi	r20, 0x21	; 33
    218c:	51 05       	cpc	r21, r1
    218e:	08 f0       	brcs	.+2      	; 0x2192 <_Z16vTasteBearbeitenc+0x1c>
    2190:	3e c2       	rjmp	.+1148   	; 0x260e <_Z16vTasteBearbeitenc+0x498>
    2192:	fa 01       	movw	r30, r20
    2194:	eb 56       	subi	r30, 0x6B	; 107
    2196:	ff 4f       	sbci	r31, 0xFF	; 255
    2198:	0c 94 64 18 	jmp	0x30c8	; 0x30c8 <__tablejump2__>
	{
	case eDisplay_GrundAnz:
		if(ctaste & KEY_LEFT) cAction = eAction_None; // taste 1 left gedrückt
		if(ctaste & KEY_RIGHT) cAction = eAction_SelectHauptMenue; // taste 2 right gedrückt
    219c:	83 ff       	sbrs	r24, 3
    219e:	02 c0       	rjmp	.+4      	; 0x21a4 <_Z16vTasteBearbeitenc+0x2e>
    21a0:	92 e0       	ldi	r25, 0x02	; 2
    21a2:	01 c0       	rjmp	.+2      	; 0x21a6 <_Z16vTasteBearbeitenc+0x30>
    21a4:	90 e0       	ldi	r25, 0x00	; 0
		if(ctaste & KEY_UP) cAction = eAction_None; // taste 3 up gedrückt
    21a6:	80 fd       	sbrc	r24, 0
    21a8:	90 e0       	ldi	r25, 0x00	; 0
		if(ctaste & KEY_DOWN) cAction = eAction_None; // taste 4 down gedrückt
    21aa:	82 ff       	sbrs	r24, 2
    21ac:	3f c2       	rjmp	.+1150   	; 0x262c <_Z16vTasteBearbeitenc+0x4b6>
}

void vTasteBearbeiten(const char ctaste)
{
	char cAction = eAction_None;
	uint16_t cPara = 0;
    21ae:	60 e0       	ldi	r22, 0x00	; 0
    21b0:	70 e0       	ldi	r23, 0x00	; 0
	{
	case eDisplay_GrundAnz:
		if(ctaste & KEY_LEFT) cAction = eAction_None; // taste 1 left gedrückt
		if(ctaste & KEY_RIGHT) cAction = eAction_SelectHauptMenue; // taste 2 right gedrückt
		if(ctaste & KEY_UP) cAction = eAction_None; // taste 3 up gedrückt
		if(ctaste & KEY_DOWN) cAction = eAction_None; // taste 4 down gedrückt
    21b2:	90 e0       	ldi	r25, 0x00	; 0
    21b4:	67 c2       	rjmp	.+1230   	; 0x2684 <_Z16vTasteBearbeitenc+0x50e>
		break;
	case eDisplay_Menue1_Soll:
		if(ctaste & KEY_LEFT) cAction = eAction_SelectGrundMenue; // taste 1 left gedrückt
		if(ctaste & KEY_RIGHT) cAction = eAction_SelectSollMenue; // taste 2 right gedrückt
    21b6:	83 fd       	sbrc	r24, 3
    21b8:	04 c0       	rjmp	.+8      	; 0x21c2 <_Z16vTasteBearbeitenc+0x4c>
	ucUpdateDisplay = 1;
}

void vTasteBearbeiten(const char ctaste)
{
	char cAction = eAction_None;
    21ba:	81 fb       	bst	r24, 1
    21bc:	99 27       	eor	r25, r25
    21be:	90 f9       	bld	r25, 0
    21c0:	01 c0       	rjmp	.+2      	; 0x21c4 <_Z16vTasteBearbeitenc+0x4e>
		if(ctaste & KEY_UP) cAction = eAction_None; // taste 3 up gedrückt
		if(ctaste & KEY_DOWN) cAction = eAction_None; // taste 4 down gedrückt
		break;
	case eDisplay_Menue1_Soll:
		if(ctaste & KEY_LEFT) cAction = eAction_SelectGrundMenue; // taste 1 left gedrückt
		if(ctaste & KEY_RIGHT) cAction = eAction_SelectSollMenue; // taste 2 right gedrückt
    21c2:	93 e0       	ldi	r25, 0x03	; 3
		if(ctaste & KEY_UP) cAction = eAction_MenueUp; // taste 3 up gedrückt
    21c4:	80 fd       	sbrc	r24, 0
    21c6:	91 e1       	ldi	r25, 0x11	; 17
		if(ctaste & KEY_DOWN) cAction = eAction_MenueDown; // taste 4 down gedrückt
    21c8:	82 ff       	sbrs	r24, 2
    21ca:	33 c2       	rjmp	.+1126   	; 0x2632 <_Z16vTasteBearbeitenc+0x4bc>
}

void vTasteBearbeiten(const char ctaste)
{
	char cAction = eAction_None;
	uint16_t cPara = 0;
    21cc:	60 e0       	ldi	r22, 0x00	; 0
    21ce:	70 e0       	ldi	r23, 0x00	; 0
		break;
	case eDisplay_Menue1_Soll:
		if(ctaste & KEY_LEFT) cAction = eAction_SelectGrundMenue; // taste 1 left gedrückt
		if(ctaste & KEY_RIGHT) cAction = eAction_SelectSollMenue; // taste 2 right gedrückt
		if(ctaste & KEY_UP) cAction = eAction_MenueUp; // taste 3 up gedrückt
		if(ctaste & KEY_DOWN) cAction = eAction_MenueDown; // taste 4 down gedrückt
    21d0:	92 e1       	ldi	r25, 0x12	; 18
    21d2:	58 c2       	rjmp	.+1200   	; 0x2684 <_Z16vTasteBearbeitenc+0x50e>
		break;
	case eDisplay_Menue1_hyster:
		if(ctaste & KEY_LEFT) cAction = eAction_SelectGrundMenue; // taste 1 left gedrückt
		if(ctaste & KEY_RIGHT) cAction = eAction_SelectHysterMenue; // taste 2 right gedrückt
    21d4:	83 fd       	sbrc	r24, 3
    21d6:	04 c0       	rjmp	.+8      	; 0x21e0 <_Z16vTasteBearbeitenc+0x6a>
	ucUpdateDisplay = 1;
}

void vTasteBearbeiten(const char ctaste)
{
	char cAction = eAction_None;
    21d8:	81 fb       	bst	r24, 1
    21da:	99 27       	eor	r25, r25
    21dc:	90 f9       	bld	r25, 0
    21de:	01 c0       	rjmp	.+2      	; 0x21e2 <_Z16vTasteBearbeitenc+0x6c>
		if(ctaste & KEY_UP) cAction = eAction_MenueUp; // taste 3 up gedrückt
		if(ctaste & KEY_DOWN) cAction = eAction_MenueDown; // taste 4 down gedrückt
		break;
	case eDisplay_Menue1_hyster:
		if(ctaste & KEY_LEFT) cAction = eAction_SelectGrundMenue; // taste 1 left gedrückt
		if(ctaste & KEY_RIGHT) cAction = eAction_SelectHysterMenue; // taste 2 right gedrückt
    21e0:	94 e0       	ldi	r25, 0x04	; 4
		if(ctaste & KEY_UP) cAction = eAction_MenueUp; // taste 3 up gedrückt
    21e2:	80 fd       	sbrc	r24, 0
    21e4:	91 e1       	ldi	r25, 0x11	; 17
		if(ctaste & KEY_DOWN) cAction = eAction_MenueDown; // taste 4 down gedrückt
    21e6:	82 ff       	sbrs	r24, 2
    21e8:	27 c2       	rjmp	.+1102   	; 0x2638 <_Z16vTasteBearbeitenc+0x4c2>
}

void vTasteBearbeiten(const char ctaste)
{
	char cAction = eAction_None;
	uint16_t cPara = 0;
    21ea:	60 e0       	ldi	r22, 0x00	; 0
    21ec:	70 e0       	ldi	r23, 0x00	; 0
		break;
	case eDisplay_Menue1_hyster:
		if(ctaste & KEY_LEFT) cAction = eAction_SelectGrundMenue; // taste 1 left gedrückt
		if(ctaste & KEY_RIGHT) cAction = eAction_SelectHysterMenue; // taste 2 right gedrückt
		if(ctaste & KEY_UP) cAction = eAction_MenueUp; // taste 3 up gedrückt
		if(ctaste & KEY_DOWN) cAction = eAction_MenueDown; // taste 4 down gedrückt
    21ee:	92 e1       	ldi	r25, 0x12	; 18
    21f0:	49 c2       	rjmp	.+1170   	; 0x2684 <_Z16vTasteBearbeitenc+0x50e>
		break;
	case eDisplay_Menue1_offset:
		if(ctaste & KEY_LEFT) cAction = eAction_SelectGrundMenue; // taste 1 left gedrückt
		if(ctaste & KEY_RIGHT) cAction = eAction_SelectOffMenue; // taste 2 right gedrückt
    21f2:	83 fd       	sbrc	r24, 3
    21f4:	04 c0       	rjmp	.+8      	; 0x21fe <_Z16vTasteBearbeitenc+0x88>
	ucUpdateDisplay = 1;
}

void vTasteBearbeiten(const char ctaste)
{
	char cAction = eAction_None;
    21f6:	81 fb       	bst	r24, 1
    21f8:	99 27       	eor	r25, r25
    21fa:	90 f9       	bld	r25, 0
    21fc:	01 c0       	rjmp	.+2      	; 0x2200 <_Z16vTasteBearbeitenc+0x8a>
		if(ctaste & KEY_UP) cAction = eAction_MenueUp; // taste 3 up gedrückt
		if(ctaste & KEY_DOWN) cAction = eAction_MenueDown; // taste 4 down gedrückt
		break;
	case eDisplay_Menue1_offset:
		if(ctaste & KEY_LEFT) cAction = eAction_SelectGrundMenue; // taste 1 left gedrückt
		if(ctaste & KEY_RIGHT) cAction = eAction_SelectOffMenue; // taste 2 right gedrückt
    21fe:	95 e0       	ldi	r25, 0x05	; 5
		if(ctaste & KEY_UP) cAction = eAction_MenueUp; // taste 3 up gedrückt
    2200:	80 fd       	sbrc	r24, 0
    2202:	91 e1       	ldi	r25, 0x11	; 17
		if(ctaste & KEY_DOWN) cAction = eAction_MenueDown; // taste 4 down gedrückt
    2204:	82 ff       	sbrs	r24, 2
    2206:	1b c2       	rjmp	.+1078   	; 0x263e <_Z16vTasteBearbeitenc+0x4c8>
}

void vTasteBearbeiten(const char ctaste)
{
	char cAction = eAction_None;
	uint16_t cPara = 0;
    2208:	60 e0       	ldi	r22, 0x00	; 0
    220a:	70 e0       	ldi	r23, 0x00	; 0
		break;
	case eDisplay_Menue1_offset:
		if(ctaste & KEY_LEFT) cAction = eAction_SelectGrundMenue; // taste 1 left gedrückt
		if(ctaste & KEY_RIGHT) cAction = eAction_SelectOffMenue; // taste 2 right gedrückt
		if(ctaste & KEY_UP) cAction = eAction_MenueUp; // taste 3 up gedrückt
		if(ctaste & KEY_DOWN) cAction = eAction_MenueDown; // taste 4 down gedrückt
    220c:	92 e1       	ldi	r25, 0x12	; 18
    220e:	3a c2       	rjmp	.+1140   	; 0x2684 <_Z16vTasteBearbeitenc+0x50e>
		break;
	case eDisplay_Menue1_WendeAnzahl:
		if(ctaste & KEY_LEFT) cAction = eAction_SelectGrundMenue; // taste 1 left gedrückt
		if(ctaste & KEY_RIGHT) cAction = eAction_SelectWendeAnzahlMenue; // taste 2 right gedrückt
    2210:	83 fd       	sbrc	r24, 3
    2212:	04 c0       	rjmp	.+8      	; 0x221c <_Z16vTasteBearbeitenc+0xa6>
	ucUpdateDisplay = 1;
}

void vTasteBearbeiten(const char ctaste)
{
	char cAction = eAction_None;
    2214:	81 fb       	bst	r24, 1
    2216:	99 27       	eor	r25, r25
    2218:	90 f9       	bld	r25, 0
    221a:	01 c0       	rjmp	.+2      	; 0x221e <_Z16vTasteBearbeitenc+0xa8>
		if(ctaste & KEY_UP) cAction = eAction_MenueUp; // taste 3 up gedrückt
		if(ctaste & KEY_DOWN) cAction = eAction_MenueDown; // taste 4 down gedrückt
		break;
	case eDisplay_Menue1_WendeAnzahl:
		if(ctaste & KEY_LEFT) cAction = eAction_SelectGrundMenue; // taste 1 left gedrückt
		if(ctaste & KEY_RIGHT) cAction = eAction_SelectWendeAnzahlMenue; // taste 2 right gedrückt
    221c:	9b e0       	ldi	r25, 0x0B	; 11
		if(ctaste & KEY_UP) cAction = eAction_MenueUp; // taste 3 up gedrückt
    221e:	80 fd       	sbrc	r24, 0
    2220:	91 e1       	ldi	r25, 0x11	; 17
		if(ctaste & KEY_DOWN) cAction = eAction_MenueDown; // taste 4 down gedrückt
    2222:	82 ff       	sbrs	r24, 2
    2224:	0f c2       	rjmp	.+1054   	; 0x2644 <_Z16vTasteBearbeitenc+0x4ce>
}

void vTasteBearbeiten(const char ctaste)
{
	char cAction = eAction_None;
	uint16_t cPara = 0;
    2226:	60 e0       	ldi	r22, 0x00	; 0
    2228:	70 e0       	ldi	r23, 0x00	; 0
		break;
	case eDisplay_Menue1_WendeAnzahl:
		if(ctaste & KEY_LEFT) cAction = eAction_SelectGrundMenue; // taste 1 left gedrückt
		if(ctaste & KEY_RIGHT) cAction = eAction_SelectWendeAnzahlMenue; // taste 2 right gedrückt
		if(ctaste & KEY_UP) cAction = eAction_MenueUp; // taste 3 up gedrückt
		if(ctaste & KEY_DOWN) cAction = eAction_MenueDown; // taste 4 down gedrückt
    222a:	92 e1       	ldi	r25, 0x12	; 18
    222c:	2b c2       	rjmp	.+1110   	; 0x2684 <_Z16vTasteBearbeitenc+0x50e>
		break;
	case eDisplay_Menue1_WendeZeit:
		if(ctaste & KEY_LEFT) cAction = eAction_SelectGrundMenue; // taste 1 left gedrückt
		if(ctaste & KEY_RIGHT) cAction = eAction_SelectWendeZeitMenue; // taste 2 right gedrückt
    222e:	83 fd       	sbrc	r24, 3
    2230:	04 c0       	rjmp	.+8      	; 0x223a <_Z16vTasteBearbeitenc+0xc4>
	ucUpdateDisplay = 1;
}

void vTasteBearbeiten(const char ctaste)
{
	char cAction = eAction_None;
    2232:	81 fb       	bst	r24, 1
    2234:	99 27       	eor	r25, r25
    2236:	90 f9       	bld	r25, 0
    2238:	01 c0       	rjmp	.+2      	; 0x223c <_Z16vTasteBearbeitenc+0xc6>
		if(ctaste & KEY_UP) cAction = eAction_MenueUp; // taste 3 up gedrückt
		if(ctaste & KEY_DOWN) cAction = eAction_MenueDown; // taste 4 down gedrückt
		break;
	case eDisplay_Menue1_WendeZeit:
		if(ctaste & KEY_LEFT) cAction = eAction_SelectGrundMenue; // taste 1 left gedrückt
		if(ctaste & KEY_RIGHT) cAction = eAction_SelectWendeZeitMenue; // taste 2 right gedrückt
    223a:	97 e0       	ldi	r25, 0x07	; 7
		if(ctaste & KEY_UP) cAction = eAction_MenueUp; // taste 3 up gedrückt
    223c:	80 fd       	sbrc	r24, 0
    223e:	91 e1       	ldi	r25, 0x11	; 17
		if(ctaste & KEY_DOWN) cAction = eAction_MenueDown; // taste 4 down gedrückt
    2240:	82 ff       	sbrs	r24, 2
    2242:	03 c2       	rjmp	.+1030   	; 0x264a <_Z16vTasteBearbeitenc+0x4d4>
}

void vTasteBearbeiten(const char ctaste)
{
	char cAction = eAction_None;
	uint16_t cPara = 0;
    2244:	60 e0       	ldi	r22, 0x00	; 0
    2246:	70 e0       	ldi	r23, 0x00	; 0
		break;
	case eDisplay_Menue1_WendeZeit:
		if(ctaste & KEY_LEFT) cAction = eAction_SelectGrundMenue; // taste 1 left gedrückt
		if(ctaste & KEY_RIGHT) cAction = eAction_SelectWendeZeitMenue; // taste 2 right gedrückt
		if(ctaste & KEY_UP) cAction = eAction_MenueUp; // taste 3 up gedrückt
		if(ctaste & KEY_DOWN) cAction = eAction_MenueDown; // taste 4 down gedrückt
    2248:	92 e1       	ldi	r25, 0x12	; 18
    224a:	1c c2       	rjmp	.+1080   	; 0x2684 <_Z16vTasteBearbeitenc+0x50e>
		break;
	case eDisplay_Menue1_Reset:
		if(ctaste & KEY_LEFT) cAction = eAction_SelectGrundMenue; // taste 1 left gedrückt
		if(ctaste & KEY_RIGHT) cAction = eAction_ResetParameter; // taste 2 right gedrückt
    224c:	83 fd       	sbrc	r24, 3
    224e:	04 c0       	rjmp	.+8      	; 0x2258 <_Z16vTasteBearbeitenc+0xe2>
	ucUpdateDisplay = 1;
}

void vTasteBearbeiten(const char ctaste)
{
	char cAction = eAction_None;
    2250:	81 fb       	bst	r24, 1
    2252:	99 27       	eor	r25, r25
    2254:	90 f9       	bld	r25, 0
    2256:	01 c0       	rjmp	.+2      	; 0x225a <_Z16vTasteBearbeitenc+0xe4>
		if(ctaste & KEY_UP) cAction = eAction_MenueUp; // taste 3 up gedrückt
		if(ctaste & KEY_DOWN) cAction = eAction_MenueDown; // taste 4 down gedrückt
		break;
	case eDisplay_Menue1_Reset:
		if(ctaste & KEY_LEFT) cAction = eAction_SelectGrundMenue; // taste 1 left gedrückt
		if(ctaste & KEY_RIGHT) cAction = eAction_ResetParameter; // taste 2 right gedrückt
    2258:	9d e0       	ldi	r25, 0x0D	; 13
		if(ctaste & KEY_UP) cAction = eAction_MenueUp; // taste 3 up gedrückt
    225a:	80 fd       	sbrc	r24, 0
    225c:	91 e1       	ldi	r25, 0x11	; 17
		if(ctaste & KEY_DOWN) cAction = eAction_MenueDown; // taste 4 down gedrückt
    225e:	82 ff       	sbrs	r24, 2
    2260:	f7 c1       	rjmp	.+1006   	; 0x2650 <_Z16vTasteBearbeitenc+0x4da>
}

void vTasteBearbeiten(const char ctaste)
{
	char cAction = eAction_None;
	uint16_t cPara = 0;
    2262:	60 e0       	ldi	r22, 0x00	; 0
    2264:	70 e0       	ldi	r23, 0x00	; 0
		break;
	case eDisplay_Menue1_Reset:
		if(ctaste & KEY_LEFT) cAction = eAction_SelectGrundMenue; // taste 1 left gedrückt
		if(ctaste & KEY_RIGHT) cAction = eAction_ResetParameter; // taste 2 right gedrückt
		if(ctaste & KEY_UP) cAction = eAction_MenueUp; // taste 3 up gedrückt
		if(ctaste & KEY_DOWN) cAction = eAction_MenueDown; // taste 4 down gedrückt
    2266:	92 e1       	ldi	r25, 0x12	; 18
    2268:	0d c2       	rjmp	.+1050   	; 0x2684 <_Z16vTasteBearbeitenc+0x50e>
		break;
	case eDisplay_Menue1_Enable:
		if(ctaste & KEY_LEFT) cAction = eAction_SelectGrundMenue; // taste 1 left gedrückt
		if(ctaste & KEY_RIGHT) cAction = eAction_SelectEnableMenue; // taste 2 right gedrückt
    226a:	83 fd       	sbrc	r24, 3
    226c:	04 c0       	rjmp	.+8      	; 0x2276 <_Z16vTasteBearbeitenc+0x100>
	ucUpdateDisplay = 1;
}

void vTasteBearbeiten(const char ctaste)
{
	char cAction = eAction_None;
    226e:	81 fb       	bst	r24, 1
    2270:	99 27       	eor	r25, r25
    2272:	90 f9       	bld	r25, 0
    2274:	01 c0       	rjmp	.+2      	; 0x2278 <_Z16vTasteBearbeitenc+0x102>
		if(ctaste & KEY_UP) cAction = eAction_MenueUp; // taste 3 up gedrückt
		if(ctaste & KEY_DOWN) cAction = eAction_MenueDown; // taste 4 down gedrückt
		break;
	case eDisplay_Menue1_Enable:
		if(ctaste & KEY_LEFT) cAction = eAction_SelectGrundMenue; // taste 1 left gedrückt
		if(ctaste & KEY_RIGHT) cAction = eAction_SelectEnableMenue; // taste 2 right gedrückt
    2276:	9c e0       	ldi	r25, 0x0C	; 12
		if(ctaste & KEY_UP) cAction = eAction_MenueUp; // taste 3 up gedrückt
    2278:	80 fd       	sbrc	r24, 0
    227a:	91 e1       	ldi	r25, 0x11	; 17
		if(ctaste & KEY_DOWN) cAction = eAction_MenueDown; // taste 4 down gedrückt
    227c:	82 ff       	sbrs	r24, 2
    227e:	eb c1       	rjmp	.+982    	; 0x2656 <_Z16vTasteBearbeitenc+0x4e0>
}

void vTasteBearbeiten(const char ctaste)
{
	char cAction = eAction_None;
	uint16_t cPara = 0;
    2280:	60 e0       	ldi	r22, 0x00	; 0
    2282:	70 e0       	ldi	r23, 0x00	; 0
		break;
	case eDisplay_Menue1_Enable:
		if(ctaste & KEY_LEFT) cAction = eAction_SelectGrundMenue; // taste 1 left gedrückt
		if(ctaste & KEY_RIGHT) cAction = eAction_SelectEnableMenue; // taste 2 right gedrückt
		if(ctaste & KEY_UP) cAction = eAction_MenueUp; // taste 3 up gedrückt
		if(ctaste & KEY_DOWN) cAction = eAction_MenueDown; // taste 4 down gedrückt
    2284:	92 e1       	ldi	r25, 0x12	; 18
    2286:	fe c1       	rjmp	.+1020   	; 0x2684 <_Z16vTasteBearbeitenc+0x50e>
		break;
	case eDisplay_Menue1_cool:
		if(ctaste & KEY_LEFT) cAction = eAction_SelectGrundMenue; // taste 1 left gedrückt
		if(ctaste & KEY_RIGHT) cAction = eAction_SelectCoolMenue; // taste 2 right gedrückt
    2288:	83 fd       	sbrc	r24, 3
    228a:	04 c0       	rjmp	.+8      	; 0x2294 <_Z16vTasteBearbeitenc+0x11e>
	ucUpdateDisplay = 1;
}

void vTasteBearbeiten(const char ctaste)
{
	char cAction = eAction_None;
    228c:	81 fb       	bst	r24, 1
    228e:	99 27       	eor	r25, r25
    2290:	90 f9       	bld	r25, 0
    2292:	01 c0       	rjmp	.+2      	; 0x2296 <_Z16vTasteBearbeitenc+0x120>
		if(ctaste & KEY_UP) cAction = eAction_MenueUp; // taste 3 up gedrückt
		if(ctaste & KEY_DOWN) cAction = eAction_MenueDown; // taste 4 down gedrückt
		break;
	case eDisplay_Menue1_cool:
		if(ctaste & KEY_LEFT) cAction = eAction_SelectGrundMenue; // taste 1 left gedrückt
		if(ctaste & KEY_RIGHT) cAction = eAction_SelectCoolMenue; // taste 2 right gedrückt
    2294:	96 e0       	ldi	r25, 0x06	; 6
		if(ctaste & KEY_UP) cAction = eAction_MenueUp; // taste 3 up gedrückt
    2296:	80 fd       	sbrc	r24, 0
    2298:	91 e1       	ldi	r25, 0x11	; 17
		if(ctaste & KEY_DOWN) cAction = eAction_MenueDown; // taste 4 down gedrückt
    229a:	82 ff       	sbrs	r24, 2
    229c:	df c1       	rjmp	.+958    	; 0x265c <_Z16vTasteBearbeitenc+0x4e6>
}

void vTasteBearbeiten(const char ctaste)
{
	char cAction = eAction_None;
	uint16_t cPara = 0;
    229e:	60 e0       	ldi	r22, 0x00	; 0
    22a0:	70 e0       	ldi	r23, 0x00	; 0
		break;
	case eDisplay_Menue1_cool:
		if(ctaste & KEY_LEFT) cAction = eAction_SelectGrundMenue; // taste 1 left gedrückt
		if(ctaste & KEY_RIGHT) cAction = eAction_SelectCoolMenue; // taste 2 right gedrückt
		if(ctaste & KEY_UP) cAction = eAction_MenueUp; // taste 3 up gedrückt
		if(ctaste & KEY_DOWN) cAction = eAction_MenueDown; // taste 4 down gedrückt
    22a2:	92 e1       	ldi	r25, 0x12	; 18
    22a4:	ef c1       	rjmp	.+990    	; 0x2684 <_Z16vTasteBearbeitenc+0x50e>
		break;
	case eDisplay_Menue1_Regelparam:
		if(ctaste & KEY_LEFT) cAction = eAction_SelectGrundMenue; // taste 1 left gedrückt
		if(ctaste & KEY_RIGHT) cAction = eAction_SelectRegelparamMenue; // taste 2 right gedrückt
    22a6:	83 fd       	sbrc	r24, 3
    22a8:	04 c0       	rjmp	.+8      	; 0x22b2 <_Z16vTasteBearbeitenc+0x13c>
	ucUpdateDisplay = 1;
}

void vTasteBearbeiten(const char ctaste)
{
	char cAction = eAction_None;
    22aa:	81 fb       	bst	r24, 1
    22ac:	99 27       	eor	r25, r25
    22ae:	90 f9       	bld	r25, 0
    22b0:	01 c0       	rjmp	.+2      	; 0x22b4 <_Z16vTasteBearbeitenc+0x13e>
		if(ctaste & KEY_UP) cAction = eAction_MenueUp; // taste 3 up gedrückt
		if(ctaste & KEY_DOWN) cAction = eAction_MenueDown; // taste 4 down gedrückt
		break;
	case eDisplay_Menue1_Regelparam:
		if(ctaste & KEY_LEFT) cAction = eAction_SelectGrundMenue; // taste 1 left gedrückt
		if(ctaste & KEY_RIGHT) cAction = eAction_SelectRegelparamMenue; // taste 2 right gedrückt
    22b2:	98 e0       	ldi	r25, 0x08	; 8
		if(ctaste & KEY_UP) cAction = eAction_MenueUp; // taste 3 up gedrückt
    22b4:	80 fd       	sbrc	r24, 0
    22b6:	91 e1       	ldi	r25, 0x11	; 17
		if(ctaste & KEY_DOWN) cAction = eAction_MenueDown; // taste 4 down gedrückt
    22b8:	82 ff       	sbrs	r24, 2
    22ba:	d3 c1       	rjmp	.+934    	; 0x2662 <_Z16vTasteBearbeitenc+0x4ec>
}

void vTasteBearbeiten(const char ctaste)
{
	char cAction = eAction_None;
	uint16_t cPara = 0;
    22bc:	60 e0       	ldi	r22, 0x00	; 0
    22be:	70 e0       	ldi	r23, 0x00	; 0
		break;
	case eDisplay_Menue1_Regelparam:
		if(ctaste & KEY_LEFT) cAction = eAction_SelectGrundMenue; // taste 1 left gedrückt
		if(ctaste & KEY_RIGHT) cAction = eAction_SelectRegelparamMenue; // taste 2 right gedrückt
		if(ctaste & KEY_UP) cAction = eAction_MenueUp; // taste 3 up gedrückt
		if(ctaste & KEY_DOWN) cAction = eAction_MenueDown; // taste 4 down gedrückt
    22c0:	92 e1       	ldi	r25, 0x12	; 18
    22c2:	e0 c1       	rjmp	.+960    	; 0x2684 <_Z16vTasteBearbeitenc+0x50e>
		break;
	case eDisplay_MenueRegelparam_Raum1:
		if(ctaste & KEY_LEFT) cAction = eAction_SelectHauptMenue; // taste 1 left gedrückt
    22c4:	81 ff       	sbrs	r24, 1
    22c6:	02 c0       	rjmp	.+4      	; 0x22cc <_Z16vTasteBearbeitenc+0x156>
    22c8:	92 e0       	ldi	r25, 0x02	; 2
    22ca:	01 c0       	rjmp	.+2      	; 0x22ce <_Z16vTasteBearbeitenc+0x158>
	ucUpdateDisplay = 1;
}

void vTasteBearbeiten(const char ctaste)
{
	char cAction = eAction_None;
    22cc:	90 e0       	ldi	r25, 0x00	; 0
		if(ctaste & KEY_UP) cAction = eAction_MenueUp; // taste 3 up gedrückt
		if(ctaste & KEY_DOWN) cAction = eAction_MenueDown; // taste 4 down gedrückt
		break;
	case eDisplay_MenueRegelparam_Raum1:
		if(ctaste & KEY_LEFT) cAction = eAction_SelectHauptMenue; // taste 1 left gedrückt
		if(ctaste & KEY_RIGHT) cAction = eAction_SelectRegelparamMenue1; // taste 2 right gedrückt
    22ce:	83 fd       	sbrc	r24, 3
    22d0:	99 e0       	ldi	r25, 0x09	; 9
		if(ctaste & KEY_UP) cAction = eAction_MenueUp; // taste 3 up gedrückt
    22d2:	80 fd       	sbrc	r24, 0
    22d4:	91 e1       	ldi	r25, 0x11	; 17
		if(ctaste & KEY_DOWN) cAction = eAction_MenueDown; // taste 4 down gedrückt
    22d6:	82 ff       	sbrs	r24, 2
    22d8:	c7 c1       	rjmp	.+910    	; 0x2668 <_Z16vTasteBearbeitenc+0x4f2>
}

void vTasteBearbeiten(const char ctaste)
{
	char cAction = eAction_None;
	uint16_t cPara = 0;
    22da:	60 e0       	ldi	r22, 0x00	; 0
    22dc:	70 e0       	ldi	r23, 0x00	; 0
		break;
	case eDisplay_MenueRegelparam_Raum1:
		if(ctaste & KEY_LEFT) cAction = eAction_SelectHauptMenue; // taste 1 left gedrückt
		if(ctaste & KEY_RIGHT) cAction = eAction_SelectRegelparamMenue1; // taste 2 right gedrückt
		if(ctaste & KEY_UP) cAction = eAction_MenueUp; // taste 3 up gedrückt
		if(ctaste & KEY_DOWN) cAction = eAction_MenueDown; // taste 4 down gedrückt
    22de:	92 e1       	ldi	r25, 0x12	; 18
    22e0:	d1 c1       	rjmp	.+930    	; 0x2684 <_Z16vTasteBearbeitenc+0x50e>
		break;
	case eDisplay_MenueRegelparam_Raum2:
		if(ctaste & KEY_LEFT) cAction = eAction_SelectHauptMenue; // taste 1 left gedrückt
    22e2:	81 ff       	sbrs	r24, 1
    22e4:	02 c0       	rjmp	.+4      	; 0x22ea <_Z16vTasteBearbeitenc+0x174>
    22e6:	92 e0       	ldi	r25, 0x02	; 2
    22e8:	01 c0       	rjmp	.+2      	; 0x22ec <_Z16vTasteBearbeitenc+0x176>
	ucUpdateDisplay = 1;
}

void vTasteBearbeiten(const char ctaste)
{
	char cAction = eAction_None;
    22ea:	90 e0       	ldi	r25, 0x00	; 0
		if(ctaste & KEY_UP) cAction = eAction_MenueUp; // taste 3 up gedrückt
		if(ctaste & KEY_DOWN) cAction = eAction_MenueDown; // taste 4 down gedrückt
		break;
	case eDisplay_MenueRegelparam_Raum2:
		if(ctaste & KEY_LEFT) cAction = eAction_SelectHauptMenue; // taste 1 left gedrückt
		if(ctaste & KEY_RIGHT) cAction = eAction_SelectRegelparamMenue2; // taste 2 right gedrückt
    22ec:	83 fd       	sbrc	r24, 3
    22ee:	9a e0       	ldi	r25, 0x0A	; 10
		if(ctaste & KEY_UP) cAction = eAction_MenueUp; // taste 3 up gedrückt
    22f0:	80 fd       	sbrc	r24, 0
    22f2:	91 e1       	ldi	r25, 0x11	; 17
		if(ctaste & KEY_DOWN) cAction = eAction_MenueDown; // taste 4 down gedrückt
    22f4:	82 ff       	sbrs	r24, 2
    22f6:	bb c1       	rjmp	.+886    	; 0x266e <_Z16vTasteBearbeitenc+0x4f8>
}

void vTasteBearbeiten(const char ctaste)
{
	char cAction = eAction_None;
	uint16_t cPara = 0;
    22f8:	60 e0       	ldi	r22, 0x00	; 0
    22fa:	70 e0       	ldi	r23, 0x00	; 0
		break;
	case eDisplay_MenueRegelparam_Raum2:
		if(ctaste & KEY_LEFT) cAction = eAction_SelectHauptMenue; // taste 1 left gedrückt
		if(ctaste & KEY_RIGHT) cAction = eAction_SelectRegelparamMenue2; // taste 2 right gedrückt
		if(ctaste & KEY_UP) cAction = eAction_MenueUp; // taste 3 up gedrückt
		if(ctaste & KEY_DOWN) cAction = eAction_MenueDown; // taste 4 down gedrückt
    22fc:	92 e1       	ldi	r25, 0x12	; 18
    22fe:	c2 c1       	rjmp	.+900    	; 0x2684 <_Z16vTasteBearbeitenc+0x50e>
		break;
	case eDisplay_MenueSoll_Raum1:
		if(ctaste & KEY_LEFT) cAction = eAction_SelectHauptMenue; // taste 1 left gedrückt
    2300:	81 ff       	sbrs	r24, 1
    2302:	02 c0       	rjmp	.+4      	; 0x2308 <_Z16vTasteBearbeitenc+0x192>
    2304:	92 e0       	ldi	r25, 0x02	; 2
    2306:	01 c0       	rjmp	.+2      	; 0x230a <_Z16vTasteBearbeitenc+0x194>
	ucUpdateDisplay = 1;
}

void vTasteBearbeiten(const char ctaste)
{
	char cAction = eAction_None;
    2308:	90 e0       	ldi	r25, 0x00	; 0
		if(ctaste & KEY_UP) cAction = eAction_MenueUp; // taste 3 up gedrückt
		if(ctaste & KEY_DOWN) cAction = eAction_MenueDown; // taste 4 down gedrückt
		break;
	case eDisplay_MenueSoll_Raum1:
		if(ctaste & KEY_LEFT) cAction = eAction_SelectHauptMenue; // taste 1 left gedrückt
		if(ctaste & KEY_RIGHT) {cAction = eAction_BearbeiteWert; cPara = ePara_Sollwert1;}// taste 2 right gedrückt
    230a:	83 fd       	sbrc	r24, 3
    230c:	9e e0       	ldi	r25, 0x0E	; 14
		if(ctaste & KEY_UP) cAction = eAction_MenueUp; // taste 3 up gedrückt
    230e:	80 fd       	sbrc	r24, 0
    2310:	91 e1       	ldi	r25, 0x11	; 17
		if(ctaste & KEY_DOWN) cAction = eAction_MenueDown; // taste 4 down gedrückt
    2312:	82 ff       	sbrs	r24, 2
    2314:	af c1       	rjmp	.+862    	; 0x2674 <_Z16vTasteBearbeitenc+0x4fe>
    2316:	60 e0       	ldi	r22, 0x00	; 0
    2318:	70 e0       	ldi	r23, 0x00	; 0
    231a:	92 e1       	ldi	r25, 0x12	; 18
    231c:	b3 c1       	rjmp	.+870    	; 0x2684 <_Z16vTasteBearbeitenc+0x50e>
		break;
	case eDisplay_MenueSoll_Raum2:
		if(ctaste & KEY_LEFT) cAction = eAction_SelectHauptMenue; // taste 1 left gedrückt
    231e:	81 ff       	sbrs	r24, 1
    2320:	02 c0       	rjmp	.+4      	; 0x2326 <_Z16vTasteBearbeitenc+0x1b0>
    2322:	92 e0       	ldi	r25, 0x02	; 2
    2324:	01 c0       	rjmp	.+2      	; 0x2328 <_Z16vTasteBearbeitenc+0x1b2>
	ucUpdateDisplay = 1;
}

void vTasteBearbeiten(const char ctaste)
{
	char cAction = eAction_None;
    2326:	90 e0       	ldi	r25, 0x00	; 0
		if(ctaste & KEY_UP) cAction = eAction_MenueUp; // taste 3 up gedrückt
		if(ctaste & KEY_DOWN) cAction = eAction_MenueDown; // taste 4 down gedrückt
		break;
	case eDisplay_MenueSoll_Raum2:
		if(ctaste & KEY_LEFT) cAction = eAction_SelectHauptMenue; // taste 1 left gedrückt
		if(ctaste & KEY_RIGHT) { cAction = eAction_BearbeiteWert; cPara = ePara_Sollwert2; } // taste 2 right gedrückt
    2328:	83 ff       	sbrs	r24, 3
    232a:	04 c0       	rjmp	.+8      	; 0x2334 <_Z16vTasteBearbeitenc+0x1be>
    232c:	61 e0       	ldi	r22, 0x01	; 1
    232e:	70 e0       	ldi	r23, 0x00	; 0
    2330:	9e e0       	ldi	r25, 0x0E	; 14
    2332:	02 c0       	rjmp	.+4      	; 0x2338 <_Z16vTasteBearbeitenc+0x1c2>
}

void vTasteBearbeiten(const char ctaste)
{
	char cAction = eAction_None;
	uint16_t cPara = 0;
    2334:	60 e0       	ldi	r22, 0x00	; 0
    2336:	70 e0       	ldi	r23, 0x00	; 0
		if(ctaste & KEY_DOWN) cAction = eAction_MenueDown; // taste 4 down gedrückt
		break;
	case eDisplay_MenueSoll_Raum2:
		if(ctaste & KEY_LEFT) cAction = eAction_SelectHauptMenue; // taste 1 left gedrückt
		if(ctaste & KEY_RIGHT) { cAction = eAction_BearbeiteWert; cPara = ePara_Sollwert2; } // taste 2 right gedrückt
		if(ctaste & KEY_UP) cAction = eAction_MenueUp; // taste 3 up gedrückt
    2338:	80 fd       	sbrc	r24, 0
    233a:	91 e1       	ldi	r25, 0x11	; 17
		if(ctaste & KEY_DOWN) cAction = eAction_MenueDown; // taste 4 down gedrückt
    233c:	82 ff       	sbrs	r24, 2
    233e:	a2 c1       	rjmp	.+836    	; 0x2684 <_Z16vTasteBearbeitenc+0x50e>
    2340:	92 e1       	ldi	r25, 0x12	; 18
    2342:	a0 c1       	rjmp	.+832    	; 0x2684 <_Z16vTasteBearbeitenc+0x50e>
		break;
	case eDisplay_MenueHyster_Raum1:
		if(ctaste & KEY_LEFT) cAction = eAction_SelectHauptMenue; // taste 1 left gedrückt
    2344:	81 ff       	sbrs	r24, 1
    2346:	02 c0       	rjmp	.+4      	; 0x234c <_Z16vTasteBearbeitenc+0x1d6>
    2348:	92 e0       	ldi	r25, 0x02	; 2
    234a:	01 c0       	rjmp	.+2      	; 0x234e <_Z16vTasteBearbeitenc+0x1d8>
	ucUpdateDisplay = 1;
}

void vTasteBearbeiten(const char ctaste)
{
	char cAction = eAction_None;
    234c:	90 e0       	ldi	r25, 0x00	; 0
		if(ctaste & KEY_UP) cAction = eAction_MenueUp; // taste 3 up gedrückt
		if(ctaste & KEY_DOWN) cAction = eAction_MenueDown; // taste 4 down gedrückt
		break;
	case eDisplay_MenueHyster_Raum1:
		if(ctaste & KEY_LEFT) cAction = eAction_SelectHauptMenue; // taste 1 left gedrückt
		if(ctaste & KEY_RIGHT) {cAction = eAction_BearbeiteWert; cPara = ePara_Hysterese1;}// taste 2 right gedrückt
    234e:	83 ff       	sbrs	r24, 3
    2350:	04 c0       	rjmp	.+8      	; 0x235a <_Z16vTasteBearbeitenc+0x1e4>
    2352:	62 e0       	ldi	r22, 0x02	; 2
    2354:	70 e0       	ldi	r23, 0x00	; 0
    2356:	9e e0       	ldi	r25, 0x0E	; 14
    2358:	02 c0       	rjmp	.+4      	; 0x235e <_Z16vTasteBearbeitenc+0x1e8>
}

void vTasteBearbeiten(const char ctaste)
{
	char cAction = eAction_None;
	uint16_t cPara = 0;
    235a:	60 e0       	ldi	r22, 0x00	; 0
    235c:	70 e0       	ldi	r23, 0x00	; 0
		if(ctaste & KEY_DOWN) cAction = eAction_MenueDown; // taste 4 down gedrückt
		break;
	case eDisplay_MenueHyster_Raum1:
		if(ctaste & KEY_LEFT) cAction = eAction_SelectHauptMenue; // taste 1 left gedrückt
		if(ctaste & KEY_RIGHT) {cAction = eAction_BearbeiteWert; cPara = ePara_Hysterese1;}// taste 2 right gedrückt
		if(ctaste & KEY_UP) cAction = eAction_MenueUp; // taste 3 up gedrückt
    235e:	80 fd       	sbrc	r24, 0
    2360:	91 e1       	ldi	r25, 0x11	; 17
		if(ctaste & KEY_DOWN) cAction = eAction_MenueDown; // taste 4 down gedrückt
    2362:	82 ff       	sbrs	r24, 2
    2364:	8f c1       	rjmp	.+798    	; 0x2684 <_Z16vTasteBearbeitenc+0x50e>
    2366:	92 e1       	ldi	r25, 0x12	; 18
    2368:	8d c1       	rjmp	.+794    	; 0x2684 <_Z16vTasteBearbeitenc+0x50e>
		break;
	case eDisplay_MenueHyster_Raum2:
		if(ctaste & KEY_LEFT) cAction = eAction_SelectHauptMenue; // taste 1 left gedrückt
    236a:	81 ff       	sbrs	r24, 1
    236c:	02 c0       	rjmp	.+4      	; 0x2372 <_Z16vTasteBearbeitenc+0x1fc>
    236e:	92 e0       	ldi	r25, 0x02	; 2
    2370:	01 c0       	rjmp	.+2      	; 0x2374 <_Z16vTasteBearbeitenc+0x1fe>
	ucUpdateDisplay = 1;
}

void vTasteBearbeiten(const char ctaste)
{
	char cAction = eAction_None;
    2372:	90 e0       	ldi	r25, 0x00	; 0
		if(ctaste & KEY_UP) cAction = eAction_MenueUp; // taste 3 up gedrückt
		if(ctaste & KEY_DOWN) cAction = eAction_MenueDown; // taste 4 down gedrückt
		break;
	case eDisplay_MenueHyster_Raum2:
		if(ctaste & KEY_LEFT) cAction = eAction_SelectHauptMenue; // taste 1 left gedrückt
		if(ctaste & KEY_RIGHT) { cAction = eAction_BearbeiteWert; cPara = ePara_Hysterese2; } // taste 2 right gedrückt
    2374:	83 ff       	sbrs	r24, 3
    2376:	04 c0       	rjmp	.+8      	; 0x2380 <_Z16vTasteBearbeitenc+0x20a>
    2378:	63 e0       	ldi	r22, 0x03	; 3
    237a:	70 e0       	ldi	r23, 0x00	; 0
    237c:	9e e0       	ldi	r25, 0x0E	; 14
    237e:	02 c0       	rjmp	.+4      	; 0x2384 <_Z16vTasteBearbeitenc+0x20e>
}

void vTasteBearbeiten(const char ctaste)
{
	char cAction = eAction_None;
	uint16_t cPara = 0;
    2380:	60 e0       	ldi	r22, 0x00	; 0
    2382:	70 e0       	ldi	r23, 0x00	; 0
		if(ctaste & KEY_DOWN) cAction = eAction_MenueDown; // taste 4 down gedrückt
		break;
	case eDisplay_MenueHyster_Raum2:
		if(ctaste & KEY_LEFT) cAction = eAction_SelectHauptMenue; // taste 1 left gedrückt
		if(ctaste & KEY_RIGHT) { cAction = eAction_BearbeiteWert; cPara = ePara_Hysterese2; } // taste 2 right gedrückt
		if(ctaste & KEY_UP) cAction = eAction_MenueUp; // taste 3 up gedrückt
    2384:	80 fd       	sbrc	r24, 0
    2386:	91 e1       	ldi	r25, 0x11	; 17
		if(ctaste & KEY_DOWN) cAction = eAction_MenueDown; // taste 4 down gedrückt
    2388:	82 ff       	sbrs	r24, 2
    238a:	7c c1       	rjmp	.+760    	; 0x2684 <_Z16vTasteBearbeitenc+0x50e>
    238c:	92 e1       	ldi	r25, 0x12	; 18
    238e:	7a c1       	rjmp	.+756    	; 0x2684 <_Z16vTasteBearbeitenc+0x50e>
		break;
	case eDisplay_MenueOffset_Raum1:
		if(ctaste & KEY_LEFT) cAction = eAction_SelectHauptMenue; // taste 1 left gedrückt
    2390:	81 ff       	sbrs	r24, 1
    2392:	02 c0       	rjmp	.+4      	; 0x2398 <_Z16vTasteBearbeitenc+0x222>
    2394:	92 e0       	ldi	r25, 0x02	; 2
    2396:	01 c0       	rjmp	.+2      	; 0x239a <_Z16vTasteBearbeitenc+0x224>
	ucUpdateDisplay = 1;
}

void vTasteBearbeiten(const char ctaste)
{
	char cAction = eAction_None;
    2398:	90 e0       	ldi	r25, 0x00	; 0
		if(ctaste & KEY_UP) cAction = eAction_MenueUp; // taste 3 up gedrückt
		if(ctaste & KEY_DOWN) cAction = eAction_MenueDown; // taste 4 down gedrückt
		break;
	case eDisplay_MenueOffset_Raum1:
		if(ctaste & KEY_LEFT) cAction = eAction_SelectHauptMenue; // taste 1 left gedrückt
		if(ctaste & KEY_RIGHT) {cAction = eAction_BearbeiteWert; cPara = ePara_Offset1;}// taste 2 right gedrückt
    239a:	83 ff       	sbrs	r24, 3
    239c:	04 c0       	rjmp	.+8      	; 0x23a6 <_Z16vTasteBearbeitenc+0x230>
    239e:	64 e0       	ldi	r22, 0x04	; 4
    23a0:	70 e0       	ldi	r23, 0x00	; 0
    23a2:	9e e0       	ldi	r25, 0x0E	; 14
    23a4:	02 c0       	rjmp	.+4      	; 0x23aa <_Z16vTasteBearbeitenc+0x234>
}

void vTasteBearbeiten(const char ctaste)
{
	char cAction = eAction_None;
	uint16_t cPara = 0;
    23a6:	60 e0       	ldi	r22, 0x00	; 0
    23a8:	70 e0       	ldi	r23, 0x00	; 0
		if(ctaste & KEY_DOWN) cAction = eAction_MenueDown; // taste 4 down gedrückt
		break;
	case eDisplay_MenueOffset_Raum1:
		if(ctaste & KEY_LEFT) cAction = eAction_SelectHauptMenue; // taste 1 left gedrückt
		if(ctaste & KEY_RIGHT) {cAction = eAction_BearbeiteWert; cPara = ePara_Offset1;}// taste 2 right gedrückt
		if(ctaste & KEY_UP) cAction = eAction_MenueUp; // taste 3 up gedrückt
    23aa:	80 fd       	sbrc	r24, 0
    23ac:	91 e1       	ldi	r25, 0x11	; 17
		if(ctaste & KEY_DOWN) cAction = eAction_MenueDown; // taste 4 down gedrückt
    23ae:	82 ff       	sbrs	r24, 2
    23b0:	69 c1       	rjmp	.+722    	; 0x2684 <_Z16vTasteBearbeitenc+0x50e>
    23b2:	92 e1       	ldi	r25, 0x12	; 18
    23b4:	67 c1       	rjmp	.+718    	; 0x2684 <_Z16vTasteBearbeitenc+0x50e>
		break;
	case eDisplay_MenueOffset_Raum2:
		if(ctaste & KEY_LEFT) cAction = eAction_SelectHauptMenue; // taste 1 left gedrückt
    23b6:	81 ff       	sbrs	r24, 1
    23b8:	02 c0       	rjmp	.+4      	; 0x23be <_Z16vTasteBearbeitenc+0x248>
    23ba:	92 e0       	ldi	r25, 0x02	; 2
    23bc:	01 c0       	rjmp	.+2      	; 0x23c0 <_Z16vTasteBearbeitenc+0x24a>
	ucUpdateDisplay = 1;
}

void vTasteBearbeiten(const char ctaste)
{
	char cAction = eAction_None;
    23be:	90 e0       	ldi	r25, 0x00	; 0
		if(ctaste & KEY_UP) cAction = eAction_MenueUp; // taste 3 up gedrückt
		if(ctaste & KEY_DOWN) cAction = eAction_MenueDown; // taste 4 down gedrückt
		break;
	case eDisplay_MenueOffset_Raum2:
		if(ctaste & KEY_LEFT) cAction = eAction_SelectHauptMenue; // taste 1 left gedrückt
		if(ctaste & KEY_RIGHT) { cAction = eAction_BearbeiteWert; cPara = ePara_Offset2; } // taste 2 right gedrückt
    23c0:	83 ff       	sbrs	r24, 3
    23c2:	04 c0       	rjmp	.+8      	; 0x23cc <_Z16vTasteBearbeitenc+0x256>
    23c4:	65 e0       	ldi	r22, 0x05	; 5
    23c6:	70 e0       	ldi	r23, 0x00	; 0
    23c8:	9e e0       	ldi	r25, 0x0E	; 14
    23ca:	02 c0       	rjmp	.+4      	; 0x23d0 <_Z16vTasteBearbeitenc+0x25a>
}

void vTasteBearbeiten(const char ctaste)
{
	char cAction = eAction_None;
	uint16_t cPara = 0;
    23cc:	60 e0       	ldi	r22, 0x00	; 0
    23ce:	70 e0       	ldi	r23, 0x00	; 0
		if(ctaste & KEY_DOWN) cAction = eAction_MenueDown; // taste 4 down gedrückt
		break;
	case eDisplay_MenueOffset_Raum2:
		if(ctaste & KEY_LEFT) cAction = eAction_SelectHauptMenue; // taste 1 left gedrückt
		if(ctaste & KEY_RIGHT) { cAction = eAction_BearbeiteWert; cPara = ePara_Offset2; } // taste 2 right gedrückt
		if(ctaste & KEY_UP) cAction = eAction_MenueUp; // taste 3 up gedrückt
    23d0:	80 fd       	sbrc	r24, 0
    23d2:	91 e1       	ldi	r25, 0x11	; 17
		if(ctaste & KEY_DOWN) cAction = eAction_MenueDown; // taste 4 down gedrückt
    23d4:	82 ff       	sbrs	r24, 2
    23d6:	56 c1       	rjmp	.+684    	; 0x2684 <_Z16vTasteBearbeitenc+0x50e>
    23d8:	92 e1       	ldi	r25, 0x12	; 18
    23da:	54 c1       	rjmp	.+680    	; 0x2684 <_Z16vTasteBearbeitenc+0x50e>
		break;
	case eDisplay_MenueWendeAnzahl_Raum1:
		if(ctaste & KEY_LEFT) cAction = eAction_SelectHauptMenue; // taste 1 left gedrückt
    23dc:	81 ff       	sbrs	r24, 1
    23de:	02 c0       	rjmp	.+4      	; 0x23e4 <_Z16vTasteBearbeitenc+0x26e>
    23e0:	92 e0       	ldi	r25, 0x02	; 2
    23e2:	01 c0       	rjmp	.+2      	; 0x23e6 <_Z16vTasteBearbeitenc+0x270>
	ucUpdateDisplay = 1;
}

void vTasteBearbeiten(const char ctaste)
{
	char cAction = eAction_None;
    23e4:	90 e0       	ldi	r25, 0x00	; 0
		if(ctaste & KEY_UP) cAction = eAction_MenueUp; // taste 3 up gedrückt
		if(ctaste & KEY_DOWN) cAction = eAction_MenueDown; // taste 4 down gedrückt
		break;
	case eDisplay_MenueWendeAnzahl_Raum1:
		if(ctaste & KEY_LEFT) cAction = eAction_SelectHauptMenue; // taste 1 left gedrückt
		if(ctaste & KEY_RIGHT) {cAction = eAction_BearbeiteWert; cPara = ePara_WendeAnzahl1;}// taste 2 right gedrückt
    23e6:	83 ff       	sbrs	r24, 3
    23e8:	04 c0       	rjmp	.+8      	; 0x23f2 <_Z16vTasteBearbeitenc+0x27c>
    23ea:	68 e0       	ldi	r22, 0x08	; 8
    23ec:	70 e0       	ldi	r23, 0x00	; 0
    23ee:	9e e0       	ldi	r25, 0x0E	; 14
    23f0:	02 c0       	rjmp	.+4      	; 0x23f6 <_Z16vTasteBearbeitenc+0x280>
}

void vTasteBearbeiten(const char ctaste)
{
	char cAction = eAction_None;
	uint16_t cPara = 0;
    23f2:	60 e0       	ldi	r22, 0x00	; 0
    23f4:	70 e0       	ldi	r23, 0x00	; 0
		if(ctaste & KEY_DOWN) cAction = eAction_MenueDown; // taste 4 down gedrückt
		break;
	case eDisplay_MenueWendeAnzahl_Raum1:
		if(ctaste & KEY_LEFT) cAction = eAction_SelectHauptMenue; // taste 1 left gedrückt
		if(ctaste & KEY_RIGHT) {cAction = eAction_BearbeiteWert; cPara = ePara_WendeAnzahl1;}// taste 2 right gedrückt
		if(ctaste & KEY_UP) cAction = eAction_MenueUp; // taste 3 up gedrückt
    23f6:	80 fd       	sbrc	r24, 0
    23f8:	91 e1       	ldi	r25, 0x11	; 17
		if(ctaste & KEY_DOWN) cAction = eAction_MenueDown; // taste 4 down gedrückt
    23fa:	82 ff       	sbrs	r24, 2
    23fc:	43 c1       	rjmp	.+646    	; 0x2684 <_Z16vTasteBearbeitenc+0x50e>
    23fe:	92 e1       	ldi	r25, 0x12	; 18
    2400:	41 c1       	rjmp	.+642    	; 0x2684 <_Z16vTasteBearbeitenc+0x50e>
		break;
	case eDisplay_MenueWendeAnzahl_Raum2:
		if(ctaste & KEY_LEFT) cAction = eAction_SelectHauptMenue; // taste 1 left gedrückt
    2402:	81 ff       	sbrs	r24, 1
    2404:	02 c0       	rjmp	.+4      	; 0x240a <_Z16vTasteBearbeitenc+0x294>
    2406:	92 e0       	ldi	r25, 0x02	; 2
    2408:	01 c0       	rjmp	.+2      	; 0x240c <_Z16vTasteBearbeitenc+0x296>
	ucUpdateDisplay = 1;
}

void vTasteBearbeiten(const char ctaste)
{
	char cAction = eAction_None;
    240a:	90 e0       	ldi	r25, 0x00	; 0
		if(ctaste & KEY_UP) cAction = eAction_MenueUp; // taste 3 up gedrückt
		if(ctaste & KEY_DOWN) cAction = eAction_MenueDown; // taste 4 down gedrückt
		break;
	case eDisplay_MenueWendeAnzahl_Raum2:
		if(ctaste & KEY_LEFT) cAction = eAction_SelectHauptMenue; // taste 1 left gedrückt
		if(ctaste & KEY_RIGHT) { cAction = eAction_BearbeiteWert; cPara = ePara_WendeAnzahl2; } // taste 2 right gedrückt
    240c:	83 ff       	sbrs	r24, 3
    240e:	04 c0       	rjmp	.+8      	; 0x2418 <_Z16vTasteBearbeitenc+0x2a2>
    2410:	69 e0       	ldi	r22, 0x09	; 9
    2412:	70 e0       	ldi	r23, 0x00	; 0
    2414:	9e e0       	ldi	r25, 0x0E	; 14
    2416:	02 c0       	rjmp	.+4      	; 0x241c <_Z16vTasteBearbeitenc+0x2a6>
}

void vTasteBearbeiten(const char ctaste)
{
	char cAction = eAction_None;
	uint16_t cPara = 0;
    2418:	60 e0       	ldi	r22, 0x00	; 0
    241a:	70 e0       	ldi	r23, 0x00	; 0
		if(ctaste & KEY_DOWN) cAction = eAction_MenueDown; // taste 4 down gedrückt
		break;
	case eDisplay_MenueWendeAnzahl_Raum2:
		if(ctaste & KEY_LEFT) cAction = eAction_SelectHauptMenue; // taste 1 left gedrückt
		if(ctaste & KEY_RIGHT) { cAction = eAction_BearbeiteWert; cPara = ePara_WendeAnzahl2; } // taste 2 right gedrückt
		if(ctaste & KEY_UP) cAction = eAction_MenueUp; // taste 3 up gedrückt
    241c:	80 fd       	sbrc	r24, 0
    241e:	91 e1       	ldi	r25, 0x11	; 17
		if(ctaste & KEY_DOWN) cAction = eAction_MenueDown; // taste 4 down gedrückt
    2420:	82 ff       	sbrs	r24, 2
    2422:	30 c1       	rjmp	.+608    	; 0x2684 <_Z16vTasteBearbeitenc+0x50e>
    2424:	92 e1       	ldi	r25, 0x12	; 18
    2426:	2e c1       	rjmp	.+604    	; 0x2684 <_Z16vTasteBearbeitenc+0x50e>
		break;
	case eDisplay_MenueEnable_Raum1:
		if(ctaste & KEY_LEFT) cAction = eAction_SelectHauptMenue; // taste 1 left gedrückt
    2428:	81 ff       	sbrs	r24, 1
    242a:	02 c0       	rjmp	.+4      	; 0x2430 <_Z16vTasteBearbeitenc+0x2ba>
    242c:	92 e0       	ldi	r25, 0x02	; 2
    242e:	01 c0       	rjmp	.+2      	; 0x2432 <_Z16vTasteBearbeitenc+0x2bc>
	ucUpdateDisplay = 1;
}

void vTasteBearbeiten(const char ctaste)
{
	char cAction = eAction_None;
    2430:	90 e0       	ldi	r25, 0x00	; 0
		if(ctaste & KEY_UP) cAction = eAction_MenueUp; // taste 3 up gedrückt
		if(ctaste & KEY_DOWN) cAction = eAction_MenueDown; // taste 4 down gedrückt
		break;
	case eDisplay_MenueEnable_Raum1:
		if(ctaste & KEY_LEFT) cAction = eAction_SelectHauptMenue; // taste 1 left gedrückt
		if(ctaste & KEY_RIGHT) {cAction = eAction_BearbeiteWert; cPara = ePara_Enable1;}// taste 2 right gedrückt
    2432:	83 ff       	sbrs	r24, 3
    2434:	04 c0       	rjmp	.+8      	; 0x243e <_Z16vTasteBearbeitenc+0x2c8>
    2436:	6c e0       	ldi	r22, 0x0C	; 12
    2438:	70 e0       	ldi	r23, 0x00	; 0
    243a:	9e e0       	ldi	r25, 0x0E	; 14
    243c:	02 c0       	rjmp	.+4      	; 0x2442 <_Z16vTasteBearbeitenc+0x2cc>
}

void vTasteBearbeiten(const char ctaste)
{
	char cAction = eAction_None;
	uint16_t cPara = 0;
    243e:	60 e0       	ldi	r22, 0x00	; 0
    2440:	70 e0       	ldi	r23, 0x00	; 0
		if(ctaste & KEY_DOWN) cAction = eAction_MenueDown; // taste 4 down gedrückt
		break;
	case eDisplay_MenueEnable_Raum1:
		if(ctaste & KEY_LEFT) cAction = eAction_SelectHauptMenue; // taste 1 left gedrückt
		if(ctaste & KEY_RIGHT) {cAction = eAction_BearbeiteWert; cPara = ePara_Enable1;}// taste 2 right gedrückt
		if(ctaste & KEY_UP) cAction = eAction_MenueUp; // taste 3 up gedrückt
    2442:	80 fd       	sbrc	r24, 0
    2444:	91 e1       	ldi	r25, 0x11	; 17
		if(ctaste & KEY_DOWN) cAction = eAction_MenueDown; // taste 4 down gedrückt
    2446:	82 ff       	sbrs	r24, 2
    2448:	1d c1       	rjmp	.+570    	; 0x2684 <_Z16vTasteBearbeitenc+0x50e>
    244a:	92 e1       	ldi	r25, 0x12	; 18
    244c:	1b c1       	rjmp	.+566    	; 0x2684 <_Z16vTasteBearbeitenc+0x50e>
		break;
	case eDisplay_MenueEnable_Raum2:
		if(ctaste & KEY_LEFT) cAction = eAction_SelectHauptMenue; // taste 1 left gedrückt
    244e:	81 ff       	sbrs	r24, 1
    2450:	02 c0       	rjmp	.+4      	; 0x2456 <_Z16vTasteBearbeitenc+0x2e0>
    2452:	92 e0       	ldi	r25, 0x02	; 2
    2454:	01 c0       	rjmp	.+2      	; 0x2458 <_Z16vTasteBearbeitenc+0x2e2>
	ucUpdateDisplay = 1;
}

void vTasteBearbeiten(const char ctaste)
{
	char cAction = eAction_None;
    2456:	90 e0       	ldi	r25, 0x00	; 0
		if(ctaste & KEY_UP) cAction = eAction_MenueUp; // taste 3 up gedrückt
		if(ctaste & KEY_DOWN) cAction = eAction_MenueDown; // taste 4 down gedrückt
		break;
	case eDisplay_MenueEnable_Raum2:
		if(ctaste & KEY_LEFT) cAction = eAction_SelectHauptMenue; // taste 1 left gedrückt
		if(ctaste & KEY_RIGHT) { cAction = eAction_BearbeiteWert; cPara = ePara_Enable2; } // taste 2 right gedrückt
    2458:	83 ff       	sbrs	r24, 3
    245a:	04 c0       	rjmp	.+8      	; 0x2464 <_Z16vTasteBearbeitenc+0x2ee>
    245c:	6d e0       	ldi	r22, 0x0D	; 13
    245e:	70 e0       	ldi	r23, 0x00	; 0
    2460:	9e e0       	ldi	r25, 0x0E	; 14
    2462:	02 c0       	rjmp	.+4      	; 0x2468 <_Z16vTasteBearbeitenc+0x2f2>
}

void vTasteBearbeiten(const char ctaste)
{
	char cAction = eAction_None;
	uint16_t cPara = 0;
    2464:	60 e0       	ldi	r22, 0x00	; 0
    2466:	70 e0       	ldi	r23, 0x00	; 0
		if(ctaste & KEY_DOWN) cAction = eAction_MenueDown; // taste 4 down gedrückt
		break;
	case eDisplay_MenueEnable_Raum2:
		if(ctaste & KEY_LEFT) cAction = eAction_SelectHauptMenue; // taste 1 left gedrückt
		if(ctaste & KEY_RIGHT) { cAction = eAction_BearbeiteWert; cPara = ePara_Enable2; } // taste 2 right gedrückt
		if(ctaste & KEY_UP) cAction = eAction_MenueUp; // taste 3 up gedrückt
    2468:	80 fd       	sbrc	r24, 0
    246a:	91 e1       	ldi	r25, 0x11	; 17
		if(ctaste & KEY_DOWN) cAction = eAction_MenueDown; // taste 4 down gedrückt
    246c:	82 ff       	sbrs	r24, 2
    246e:	0a c1       	rjmp	.+532    	; 0x2684 <_Z16vTasteBearbeitenc+0x50e>
    2470:	92 e1       	ldi	r25, 0x12	; 18
    2472:	08 c1       	rjmp	.+528    	; 0x2684 <_Z16vTasteBearbeitenc+0x50e>
		break;
	case eDisplay_MenueWendeZeit_Raum1:
		if(ctaste & KEY_LEFT) cAction = eAction_SelectHauptMenue; // taste 1 left gedrückt
    2474:	81 ff       	sbrs	r24, 1
    2476:	02 c0       	rjmp	.+4      	; 0x247c <_Z16vTasteBearbeitenc+0x306>
    2478:	92 e0       	ldi	r25, 0x02	; 2
    247a:	01 c0       	rjmp	.+2      	; 0x247e <_Z16vTasteBearbeitenc+0x308>
	ucUpdateDisplay = 1;
}

void vTasteBearbeiten(const char ctaste)
{
	char cAction = eAction_None;
    247c:	90 e0       	ldi	r25, 0x00	; 0
		if(ctaste & KEY_UP) cAction = eAction_MenueUp; // taste 3 up gedrückt
		if(ctaste & KEY_DOWN) cAction = eAction_MenueDown; // taste 4 down gedrückt
		break;
	case eDisplay_MenueWendeZeit_Raum1:
		if(ctaste & KEY_LEFT) cAction = eAction_SelectHauptMenue; // taste 1 left gedrückt
		if(ctaste & KEY_RIGHT) {cAction = eAction_BearbeiteWert; cPara = ePara_WendeZeit1;}// taste 2 right gedrückt
    247e:	83 ff       	sbrs	r24, 3
    2480:	04 c0       	rjmp	.+8      	; 0x248a <_Z16vTasteBearbeitenc+0x314>
    2482:	6a e0       	ldi	r22, 0x0A	; 10
    2484:	70 e0       	ldi	r23, 0x00	; 0
    2486:	9e e0       	ldi	r25, 0x0E	; 14
    2488:	02 c0       	rjmp	.+4      	; 0x248e <_Z16vTasteBearbeitenc+0x318>
}

void vTasteBearbeiten(const char ctaste)
{
	char cAction = eAction_None;
	uint16_t cPara = 0;
    248a:	60 e0       	ldi	r22, 0x00	; 0
    248c:	70 e0       	ldi	r23, 0x00	; 0
		if(ctaste & KEY_DOWN) cAction = eAction_MenueDown; // taste 4 down gedrückt
		break;
	case eDisplay_MenueWendeZeit_Raum1:
		if(ctaste & KEY_LEFT) cAction = eAction_SelectHauptMenue; // taste 1 left gedrückt
		if(ctaste & KEY_RIGHT) {cAction = eAction_BearbeiteWert; cPara = ePara_WendeZeit1;}// taste 2 right gedrückt
		if(ctaste & KEY_UP) cAction = eAction_MenueUp; // taste 3 up gedrückt
    248e:	80 fd       	sbrc	r24, 0
    2490:	91 e1       	ldi	r25, 0x11	; 17
		if(ctaste & KEY_DOWN) cAction = eAction_MenueDown; // taste 4 down gedrückt
    2492:	82 ff       	sbrs	r24, 2
    2494:	f7 c0       	rjmp	.+494    	; 0x2684 <_Z16vTasteBearbeitenc+0x50e>
    2496:	92 e1       	ldi	r25, 0x12	; 18
    2498:	f5 c0       	rjmp	.+490    	; 0x2684 <_Z16vTasteBearbeitenc+0x50e>
		break;
	case eDisplay_MenueCool_Raum1:
		if(ctaste & KEY_LEFT) cAction = eAction_SelectHauptMenue; // taste 1 left gedrückt
    249a:	81 ff       	sbrs	r24, 1
    249c:	02 c0       	rjmp	.+4      	; 0x24a2 <_Z16vTasteBearbeitenc+0x32c>
    249e:	92 e0       	ldi	r25, 0x02	; 2
    24a0:	01 c0       	rjmp	.+2      	; 0x24a4 <_Z16vTasteBearbeitenc+0x32e>
	ucUpdateDisplay = 1;
}

void vTasteBearbeiten(const char ctaste)
{
	char cAction = eAction_None;
    24a2:	90 e0       	ldi	r25, 0x00	; 0
		if(ctaste & KEY_UP) cAction = eAction_MenueUp; // taste 3 up gedrückt
		if(ctaste & KEY_DOWN) cAction = eAction_MenueDown; // taste 4 down gedrückt
		break;
	case eDisplay_MenueCool_Raum1:
		if(ctaste & KEY_LEFT) cAction = eAction_SelectHauptMenue; // taste 1 left gedrückt
		if(ctaste & KEY_RIGHT) { cAction = eAction_BearbeiteWert; cPara = ePara_CoolDown1; } // taste 2 right gedrückt
    24a4:	83 ff       	sbrs	r24, 3
    24a6:	04 c0       	rjmp	.+8      	; 0x24b0 <_Z16vTasteBearbeitenc+0x33a>
    24a8:	66 e0       	ldi	r22, 0x06	; 6
    24aa:	70 e0       	ldi	r23, 0x00	; 0
    24ac:	9e e0       	ldi	r25, 0x0E	; 14
    24ae:	02 c0       	rjmp	.+4      	; 0x24b4 <_Z16vTasteBearbeitenc+0x33e>
}

void vTasteBearbeiten(const char ctaste)
{
	char cAction = eAction_None;
	uint16_t cPara = 0;
    24b0:	60 e0       	ldi	r22, 0x00	; 0
    24b2:	70 e0       	ldi	r23, 0x00	; 0
		if(ctaste & KEY_DOWN) cAction = eAction_MenueDown; // taste 4 down gedrückt
		break;
	case eDisplay_MenueCool_Raum1:
		if(ctaste & KEY_LEFT) cAction = eAction_SelectHauptMenue; // taste 1 left gedrückt
		if(ctaste & KEY_RIGHT) { cAction = eAction_BearbeiteWert; cPara = ePara_CoolDown1; } // taste 2 right gedrückt
		if(ctaste & KEY_UP) cAction = eAction_MenueUp; // taste 3 up gedrückt
    24b4:	80 fd       	sbrc	r24, 0
    24b6:	91 e1       	ldi	r25, 0x11	; 17
		if(ctaste & KEY_DOWN) cAction = eAction_MenueDown; // taste 4 down gedrückt
    24b8:	82 ff       	sbrs	r24, 2
    24ba:	e4 c0       	rjmp	.+456    	; 0x2684 <_Z16vTasteBearbeitenc+0x50e>
    24bc:	92 e1       	ldi	r25, 0x12	; 18
    24be:	e2 c0       	rjmp	.+452    	; 0x2684 <_Z16vTasteBearbeitenc+0x50e>
		break;
	case eDisplay_MenueCool_Raum2:
		if(ctaste & KEY_LEFT) cAction = eAction_SelectHauptMenue; // taste 1 left gedrückt
    24c0:	81 ff       	sbrs	r24, 1
    24c2:	02 c0       	rjmp	.+4      	; 0x24c8 <_Z16vTasteBearbeitenc+0x352>
    24c4:	92 e0       	ldi	r25, 0x02	; 2
    24c6:	01 c0       	rjmp	.+2      	; 0x24ca <_Z16vTasteBearbeitenc+0x354>
	ucUpdateDisplay = 1;
}

void vTasteBearbeiten(const char ctaste)
{
	char cAction = eAction_None;
    24c8:	90 e0       	ldi	r25, 0x00	; 0
		if(ctaste & KEY_UP) cAction = eAction_MenueUp; // taste 3 up gedrückt
		if(ctaste & KEY_DOWN) cAction = eAction_MenueDown; // taste 4 down gedrückt
		break;
	case eDisplay_MenueCool_Raum2:
		if(ctaste & KEY_LEFT) cAction = eAction_SelectHauptMenue; // taste 1 left gedrückt
		if(ctaste & KEY_RIGHT) {cAction = eAction_BearbeiteWert; cPara = ePara_CoolDown2;}// taste 2 right gedrückt
    24ca:	83 ff       	sbrs	r24, 3
    24cc:	04 c0       	rjmp	.+8      	; 0x24d6 <_Z16vTasteBearbeitenc+0x360>
    24ce:	67 e0       	ldi	r22, 0x07	; 7
    24d0:	70 e0       	ldi	r23, 0x00	; 0
    24d2:	9e e0       	ldi	r25, 0x0E	; 14
    24d4:	02 c0       	rjmp	.+4      	; 0x24da <_Z16vTasteBearbeitenc+0x364>
}

void vTasteBearbeiten(const char ctaste)
{
	char cAction = eAction_None;
	uint16_t cPara = 0;
    24d6:	60 e0       	ldi	r22, 0x00	; 0
    24d8:	70 e0       	ldi	r23, 0x00	; 0
		if(ctaste & KEY_DOWN) cAction = eAction_MenueDown; // taste 4 down gedrückt
		break;
	case eDisplay_MenueCool_Raum2:
		if(ctaste & KEY_LEFT) cAction = eAction_SelectHauptMenue; // taste 1 left gedrückt
		if(ctaste & KEY_RIGHT) {cAction = eAction_BearbeiteWert; cPara = ePara_CoolDown2;}// taste 2 right gedrückt
		if(ctaste & KEY_UP) cAction = eAction_MenueUp; // taste 3 up gedrückt
    24da:	80 fd       	sbrc	r24, 0
    24dc:	91 e1       	ldi	r25, 0x11	; 17
		if(ctaste & KEY_DOWN) cAction = eAction_MenueDown; // taste 4 down gedrückt
    24de:	82 ff       	sbrs	r24, 2
    24e0:	d1 c0       	rjmp	.+418    	; 0x2684 <_Z16vTasteBearbeitenc+0x50e>
    24e2:	92 e1       	ldi	r25, 0x12	; 18
    24e4:	cf c0       	rjmp	.+414    	; 0x2684 <_Z16vTasteBearbeitenc+0x50e>
		break;
	case eDisplay_MenueWendeZeit_Raum2:
		if(ctaste & KEY_LEFT) cAction = eAction_SelectHauptMenue; // taste 1 left gedrückt
    24e6:	81 ff       	sbrs	r24, 1
    24e8:	02 c0       	rjmp	.+4      	; 0x24ee <_Z16vTasteBearbeitenc+0x378>
    24ea:	92 e0       	ldi	r25, 0x02	; 2
    24ec:	01 c0       	rjmp	.+2      	; 0x24f0 <_Z16vTasteBearbeitenc+0x37a>
	ucUpdateDisplay = 1;
}

void vTasteBearbeiten(const char ctaste)
{
	char cAction = eAction_None;
    24ee:	90 e0       	ldi	r25, 0x00	; 0
		if(ctaste & KEY_UP) cAction = eAction_MenueUp; // taste 3 up gedrückt
		if(ctaste & KEY_DOWN) cAction = eAction_MenueDown; // taste 4 down gedrückt
		break;
	case eDisplay_MenueWendeZeit_Raum2:
		if(ctaste & KEY_LEFT) cAction = eAction_SelectHauptMenue; // taste 1 left gedrückt
		if(ctaste & KEY_RIGHT) { cAction = eAction_BearbeiteWert; cPara = ePara_WendeZeit2; } // taste 2 right gedrückt
    24f0:	83 ff       	sbrs	r24, 3
    24f2:	04 c0       	rjmp	.+8      	; 0x24fc <_Z16vTasteBearbeitenc+0x386>
    24f4:	6b e0       	ldi	r22, 0x0B	; 11
    24f6:	70 e0       	ldi	r23, 0x00	; 0
    24f8:	9e e0       	ldi	r25, 0x0E	; 14
    24fa:	02 c0       	rjmp	.+4      	; 0x2500 <_Z16vTasteBearbeitenc+0x38a>
}

void vTasteBearbeiten(const char ctaste)
{
	char cAction = eAction_None;
	uint16_t cPara = 0;
    24fc:	60 e0       	ldi	r22, 0x00	; 0
    24fe:	70 e0       	ldi	r23, 0x00	; 0
		if(ctaste & KEY_DOWN) cAction = eAction_MenueDown; // taste 4 down gedrückt
		break;
	case eDisplay_MenueWendeZeit_Raum2:
		if(ctaste & KEY_LEFT) cAction = eAction_SelectHauptMenue; // taste 1 left gedrückt
		if(ctaste & KEY_RIGHT) { cAction = eAction_BearbeiteWert; cPara = ePara_WendeZeit2; } // taste 2 right gedrückt
		if(ctaste & KEY_UP) cAction = eAction_MenueUp; // taste 3 up gedrückt
    2500:	80 fd       	sbrc	r24, 0
    2502:	91 e1       	ldi	r25, 0x11	; 17
		if(ctaste & KEY_DOWN) cAction = eAction_MenueDown; // taste 4 down gedrückt
    2504:	82 ff       	sbrs	r24, 2
    2506:	be c0       	rjmp	.+380    	; 0x2684 <_Z16vTasteBearbeitenc+0x50e>
    2508:	92 e1       	ldi	r25, 0x12	; 18
    250a:	bc c0       	rjmp	.+376    	; 0x2684 <_Z16vTasteBearbeitenc+0x50e>
		break;
	case eDisplay_MenueRegelparam_Kp1:
		if(ctaste & KEY_LEFT) cAction = eAction_SelectRegelparamMenue; // taste 1 left gedrückt
    250c:	81 ff       	sbrs	r24, 1
    250e:	02 c0       	rjmp	.+4      	; 0x2514 <_Z16vTasteBearbeitenc+0x39e>
    2510:	98 e0       	ldi	r25, 0x08	; 8
    2512:	01 c0       	rjmp	.+2      	; 0x2516 <_Z16vTasteBearbeitenc+0x3a0>
	ucUpdateDisplay = 1;
}

void vTasteBearbeiten(const char ctaste)
{
	char cAction = eAction_None;
    2514:	90 e0       	ldi	r25, 0x00	; 0
		if(ctaste & KEY_UP) cAction = eAction_MenueUp; // taste 3 up gedrückt
		if(ctaste & KEY_DOWN) cAction = eAction_MenueDown; // taste 4 down gedrückt
		break;
	case eDisplay_MenueRegelparam_Kp1:
		if(ctaste & KEY_LEFT) cAction = eAction_SelectRegelparamMenue; // taste 1 left gedrückt
		if(ctaste & KEY_RIGHT) { cAction = eAction_BearbeiteWert; cPara = ePara_Regelparam_Kp1; } // taste 2 right gedrückt
    2516:	83 ff       	sbrs	r24, 3
    2518:	04 c0       	rjmp	.+8      	; 0x2522 <_Z16vTasteBearbeitenc+0x3ac>
    251a:	6e e0       	ldi	r22, 0x0E	; 14
    251c:	70 e0       	ldi	r23, 0x00	; 0
    251e:	9e e0       	ldi	r25, 0x0E	; 14
    2520:	02 c0       	rjmp	.+4      	; 0x2526 <_Z16vTasteBearbeitenc+0x3b0>
}

void vTasteBearbeiten(const char ctaste)
{
	char cAction = eAction_None;
	uint16_t cPara = 0;
    2522:	60 e0       	ldi	r22, 0x00	; 0
    2524:	70 e0       	ldi	r23, 0x00	; 0
		if(ctaste & KEY_DOWN) cAction = eAction_MenueDown; // taste 4 down gedrückt
		break;
	case eDisplay_MenueRegelparam_Kp1:
		if(ctaste & KEY_LEFT) cAction = eAction_SelectRegelparamMenue; // taste 1 left gedrückt
		if(ctaste & KEY_RIGHT) { cAction = eAction_BearbeiteWert; cPara = ePara_Regelparam_Kp1; } // taste 2 right gedrückt
		if(ctaste & KEY_UP) cAction = eAction_MenueUp; // taste 3 up gedrückt
    2526:	80 fd       	sbrc	r24, 0
    2528:	91 e1       	ldi	r25, 0x11	; 17
		if(ctaste & KEY_DOWN) cAction = eAction_MenueDown; // taste 4 down gedrückt
    252a:	82 ff       	sbrs	r24, 2
    252c:	ab c0       	rjmp	.+342    	; 0x2684 <_Z16vTasteBearbeitenc+0x50e>
    252e:	92 e1       	ldi	r25, 0x12	; 18
    2530:	a9 c0       	rjmp	.+338    	; 0x2684 <_Z16vTasteBearbeitenc+0x50e>
		break;
	case eDisplay_MenueRegelparam_Ki1:
		if(ctaste & KEY_LEFT) cAction = eAction_SelectRegelparamMenue; // taste 1 left gedrückt
    2532:	81 ff       	sbrs	r24, 1
    2534:	02 c0       	rjmp	.+4      	; 0x253a <_Z16vTasteBearbeitenc+0x3c4>
    2536:	98 e0       	ldi	r25, 0x08	; 8
    2538:	01 c0       	rjmp	.+2      	; 0x253c <_Z16vTasteBearbeitenc+0x3c6>
	ucUpdateDisplay = 1;
}

void vTasteBearbeiten(const char ctaste)
{
	char cAction = eAction_None;
    253a:	90 e0       	ldi	r25, 0x00	; 0
		if(ctaste & KEY_UP) cAction = eAction_MenueUp; // taste 3 up gedrückt
		if(ctaste & KEY_DOWN) cAction = eAction_MenueDown; // taste 4 down gedrückt
		break;
	case eDisplay_MenueRegelparam_Ki1:
		if(ctaste & KEY_LEFT) cAction = eAction_SelectRegelparamMenue; // taste 1 left gedrückt
		if(ctaste & KEY_RIGHT) { cAction = eAction_BearbeiteWert; cPara = ePara_Regelparam_Ki1; } // taste 2 right gedrückt
    253c:	83 ff       	sbrs	r24, 3
    253e:	04 c0       	rjmp	.+8      	; 0x2548 <_Z16vTasteBearbeitenc+0x3d2>
    2540:	6f e0       	ldi	r22, 0x0F	; 15
    2542:	70 e0       	ldi	r23, 0x00	; 0
    2544:	9e e0       	ldi	r25, 0x0E	; 14
    2546:	02 c0       	rjmp	.+4      	; 0x254c <_Z16vTasteBearbeitenc+0x3d6>
}

void vTasteBearbeiten(const char ctaste)
{
	char cAction = eAction_None;
	uint16_t cPara = 0;
    2548:	60 e0       	ldi	r22, 0x00	; 0
    254a:	70 e0       	ldi	r23, 0x00	; 0
		if(ctaste & KEY_DOWN) cAction = eAction_MenueDown; // taste 4 down gedrückt
		break;
	case eDisplay_MenueRegelparam_Ki1:
		if(ctaste & KEY_LEFT) cAction = eAction_SelectRegelparamMenue; // taste 1 left gedrückt
		if(ctaste & KEY_RIGHT) { cAction = eAction_BearbeiteWert; cPara = ePara_Regelparam_Ki1; } // taste 2 right gedrückt
		if(ctaste & KEY_UP) cAction = eAction_MenueUp; // taste 3 up gedrückt
    254c:	80 fd       	sbrc	r24, 0
    254e:	91 e1       	ldi	r25, 0x11	; 17
		if(ctaste & KEY_DOWN) cAction = eAction_MenueDown; // taste 4 down gedrückt
    2550:	82 ff       	sbrs	r24, 2
    2552:	98 c0       	rjmp	.+304    	; 0x2684 <_Z16vTasteBearbeitenc+0x50e>
    2554:	92 e1       	ldi	r25, 0x12	; 18
    2556:	96 c0       	rjmp	.+300    	; 0x2684 <_Z16vTasteBearbeitenc+0x50e>
		break;
	case eDisplay_MenueRegelparam_Kd1:
		if(ctaste & KEY_LEFT) cAction = eAction_SelectRegelparamMenue; // taste 1 left gedrückt
    2558:	81 ff       	sbrs	r24, 1
    255a:	02 c0       	rjmp	.+4      	; 0x2560 <_Z16vTasteBearbeitenc+0x3ea>
    255c:	98 e0       	ldi	r25, 0x08	; 8
    255e:	01 c0       	rjmp	.+2      	; 0x2562 <_Z16vTasteBearbeitenc+0x3ec>
	ucUpdateDisplay = 1;
}

void vTasteBearbeiten(const char ctaste)
{
	char cAction = eAction_None;
    2560:	90 e0       	ldi	r25, 0x00	; 0
		if(ctaste & KEY_UP) cAction = eAction_MenueUp; // taste 3 up gedrückt
		if(ctaste & KEY_DOWN) cAction = eAction_MenueDown; // taste 4 down gedrückt
		break;
	case eDisplay_MenueRegelparam_Kd1:
		if(ctaste & KEY_LEFT) cAction = eAction_SelectRegelparamMenue; // taste 1 left gedrückt
		if(ctaste & KEY_RIGHT) { cAction = eAction_BearbeiteWert; cPara = ePara_Regelparam_Kd1; } // taste 2 right gedrückt
    2562:	83 ff       	sbrs	r24, 3
    2564:	04 c0       	rjmp	.+8      	; 0x256e <_Z16vTasteBearbeitenc+0x3f8>
    2566:	60 e1       	ldi	r22, 0x10	; 16
    2568:	70 e0       	ldi	r23, 0x00	; 0
    256a:	9e e0       	ldi	r25, 0x0E	; 14
    256c:	02 c0       	rjmp	.+4      	; 0x2572 <_Z16vTasteBearbeitenc+0x3fc>
}

void vTasteBearbeiten(const char ctaste)
{
	char cAction = eAction_None;
	uint16_t cPara = 0;
    256e:	60 e0       	ldi	r22, 0x00	; 0
    2570:	70 e0       	ldi	r23, 0x00	; 0
		if(ctaste & KEY_DOWN) cAction = eAction_MenueDown; // taste 4 down gedrückt
		break;
	case eDisplay_MenueRegelparam_Kd1:
		if(ctaste & KEY_LEFT) cAction = eAction_SelectRegelparamMenue; // taste 1 left gedrückt
		if(ctaste & KEY_RIGHT) { cAction = eAction_BearbeiteWert; cPara = ePara_Regelparam_Kd1; } // taste 2 right gedrückt
		if(ctaste & KEY_UP) cAction = eAction_MenueUp; // taste 3 up gedrückt
    2572:	80 fd       	sbrc	r24, 0
    2574:	91 e1       	ldi	r25, 0x11	; 17
		if(ctaste & KEY_DOWN) cAction = eAction_MenueDown; // taste 4 down gedrückt
    2576:	82 ff       	sbrs	r24, 2
    2578:	85 c0       	rjmp	.+266    	; 0x2684 <_Z16vTasteBearbeitenc+0x50e>
    257a:	92 e1       	ldi	r25, 0x12	; 18
    257c:	83 c0       	rjmp	.+262    	; 0x2684 <_Z16vTasteBearbeitenc+0x50e>
		break;
	case eDisplay_MenueRegelparam_Kp2:
		if(ctaste & KEY_LEFT) cAction = eAction_SelectRegelparamMenue; // taste 1 left gedrückt
    257e:	81 ff       	sbrs	r24, 1
    2580:	02 c0       	rjmp	.+4      	; 0x2586 <_Z16vTasteBearbeitenc+0x410>
    2582:	98 e0       	ldi	r25, 0x08	; 8
    2584:	01 c0       	rjmp	.+2      	; 0x2588 <_Z16vTasteBearbeitenc+0x412>
	ucUpdateDisplay = 1;
}

void vTasteBearbeiten(const char ctaste)
{
	char cAction = eAction_None;
    2586:	90 e0       	ldi	r25, 0x00	; 0
		if(ctaste & KEY_UP) cAction = eAction_MenueUp; // taste 3 up gedrückt
		if(ctaste & KEY_DOWN) cAction = eAction_MenueDown; // taste 4 down gedrückt
		break;
	case eDisplay_MenueRegelparam_Kp2:
		if(ctaste & KEY_LEFT) cAction = eAction_SelectRegelparamMenue; // taste 1 left gedrückt
		if(ctaste & KEY_RIGHT) { cAction = eAction_BearbeiteWert; cPara = ePara_Regelparam_Kp2; } // taste 2 right gedrückt
    2588:	83 ff       	sbrs	r24, 3
    258a:	04 c0       	rjmp	.+8      	; 0x2594 <_Z16vTasteBearbeitenc+0x41e>
    258c:	61 e1       	ldi	r22, 0x11	; 17
    258e:	70 e0       	ldi	r23, 0x00	; 0
    2590:	9e e0       	ldi	r25, 0x0E	; 14
    2592:	02 c0       	rjmp	.+4      	; 0x2598 <_Z16vTasteBearbeitenc+0x422>
}

void vTasteBearbeiten(const char ctaste)
{
	char cAction = eAction_None;
	uint16_t cPara = 0;
    2594:	60 e0       	ldi	r22, 0x00	; 0
    2596:	70 e0       	ldi	r23, 0x00	; 0
		if(ctaste & KEY_DOWN) cAction = eAction_MenueDown; // taste 4 down gedrückt
		break;
	case eDisplay_MenueRegelparam_Kp2:
		if(ctaste & KEY_LEFT) cAction = eAction_SelectRegelparamMenue; // taste 1 left gedrückt
		if(ctaste & KEY_RIGHT) { cAction = eAction_BearbeiteWert; cPara = ePara_Regelparam_Kp2; } // taste 2 right gedrückt
		if(ctaste & KEY_UP) cAction = eAction_MenueUp; // taste 3 up gedrückt
    2598:	80 fd       	sbrc	r24, 0
    259a:	91 e1       	ldi	r25, 0x11	; 17
		if(ctaste & KEY_DOWN) cAction = eAction_MenueDown; // taste 4 down gedrückt
    259c:	82 ff       	sbrs	r24, 2
    259e:	72 c0       	rjmp	.+228    	; 0x2684 <_Z16vTasteBearbeitenc+0x50e>
    25a0:	92 e1       	ldi	r25, 0x12	; 18
    25a2:	70 c0       	rjmp	.+224    	; 0x2684 <_Z16vTasteBearbeitenc+0x50e>
		break;
	case eDisplay_MenueRegelparam_Ki2:
		if(ctaste & KEY_LEFT) cAction = eAction_SelectRegelparamMenue; // taste 1 left gedrückt
    25a4:	81 ff       	sbrs	r24, 1
    25a6:	02 c0       	rjmp	.+4      	; 0x25ac <_Z16vTasteBearbeitenc+0x436>
    25a8:	98 e0       	ldi	r25, 0x08	; 8
    25aa:	01 c0       	rjmp	.+2      	; 0x25ae <_Z16vTasteBearbeitenc+0x438>
	ucUpdateDisplay = 1;
}

void vTasteBearbeiten(const char ctaste)
{
	char cAction = eAction_None;
    25ac:	90 e0       	ldi	r25, 0x00	; 0
		if(ctaste & KEY_UP) cAction = eAction_MenueUp; // taste 3 up gedrückt
		if(ctaste & KEY_DOWN) cAction = eAction_MenueDown; // taste 4 down gedrückt
		break;
	case eDisplay_MenueRegelparam_Ki2:
		if(ctaste & KEY_LEFT) cAction = eAction_SelectRegelparamMenue; // taste 1 left gedrückt
		if(ctaste & KEY_RIGHT) { cAction = eAction_BearbeiteWert; cPara = ePara_Regelparam_Ki2; } // taste 2 right gedrückt
    25ae:	83 ff       	sbrs	r24, 3
    25b0:	04 c0       	rjmp	.+8      	; 0x25ba <_Z16vTasteBearbeitenc+0x444>
    25b2:	62 e1       	ldi	r22, 0x12	; 18
    25b4:	70 e0       	ldi	r23, 0x00	; 0
    25b6:	9e e0       	ldi	r25, 0x0E	; 14
    25b8:	02 c0       	rjmp	.+4      	; 0x25be <_Z16vTasteBearbeitenc+0x448>
}

void vTasteBearbeiten(const char ctaste)
{
	char cAction = eAction_None;
	uint16_t cPara = 0;
    25ba:	60 e0       	ldi	r22, 0x00	; 0
    25bc:	70 e0       	ldi	r23, 0x00	; 0
		if(ctaste & KEY_DOWN) cAction = eAction_MenueDown; // taste 4 down gedrückt
		break;
	case eDisplay_MenueRegelparam_Ki2:
		if(ctaste & KEY_LEFT) cAction = eAction_SelectRegelparamMenue; // taste 1 left gedrückt
		if(ctaste & KEY_RIGHT) { cAction = eAction_BearbeiteWert; cPara = ePara_Regelparam_Ki2; } // taste 2 right gedrückt
		if(ctaste & KEY_UP) cAction = eAction_MenueUp; // taste 3 up gedrückt
    25be:	80 fd       	sbrc	r24, 0
    25c0:	91 e1       	ldi	r25, 0x11	; 17
		if(ctaste & KEY_DOWN) cAction = eAction_MenueDown; // taste 4 down gedrückt
    25c2:	82 ff       	sbrs	r24, 2
    25c4:	5f c0       	rjmp	.+190    	; 0x2684 <_Z16vTasteBearbeitenc+0x50e>
    25c6:	92 e1       	ldi	r25, 0x12	; 18
    25c8:	5d c0       	rjmp	.+186    	; 0x2684 <_Z16vTasteBearbeitenc+0x50e>
		break;
	case eDisplay_MenueRegelparam_Kd2:
		if(ctaste & KEY_LEFT) cAction = eAction_SelectRegelparamMenue; // taste 1 left gedrückt
    25ca:	81 ff       	sbrs	r24, 1
    25cc:	02 c0       	rjmp	.+4      	; 0x25d2 <_Z16vTasteBearbeitenc+0x45c>
    25ce:	98 e0       	ldi	r25, 0x08	; 8
    25d0:	01 c0       	rjmp	.+2      	; 0x25d4 <_Z16vTasteBearbeitenc+0x45e>
	ucUpdateDisplay = 1;
}

void vTasteBearbeiten(const char ctaste)
{
	char cAction = eAction_None;
    25d2:	90 e0       	ldi	r25, 0x00	; 0
		if(ctaste & KEY_UP) cAction = eAction_MenueUp; // taste 3 up gedrückt
		if(ctaste & KEY_DOWN) cAction = eAction_MenueDown; // taste 4 down gedrückt
		break;
	case eDisplay_MenueRegelparam_Kd2:
		if(ctaste & KEY_LEFT) cAction = eAction_SelectRegelparamMenue; // taste 1 left gedrückt
		if(ctaste & KEY_RIGHT) { cAction = eAction_BearbeiteWert; cPara = ePara_Regelparam_Kd2; } // taste 2 right gedrückt
    25d4:	83 ff       	sbrs	r24, 3
    25d6:	04 c0       	rjmp	.+8      	; 0x25e0 <_Z16vTasteBearbeitenc+0x46a>
    25d8:	63 e1       	ldi	r22, 0x13	; 19
    25da:	70 e0       	ldi	r23, 0x00	; 0
    25dc:	9e e0       	ldi	r25, 0x0E	; 14
    25de:	02 c0       	rjmp	.+4      	; 0x25e4 <_Z16vTasteBearbeitenc+0x46e>
}

void vTasteBearbeiten(const char ctaste)
{
	char cAction = eAction_None;
	uint16_t cPara = 0;
    25e0:	60 e0       	ldi	r22, 0x00	; 0
    25e2:	70 e0       	ldi	r23, 0x00	; 0
		if(ctaste & KEY_DOWN) cAction = eAction_MenueDown; // taste 4 down gedrückt
		break;
	case eDisplay_MenueRegelparam_Kd2:
		if(ctaste & KEY_LEFT) cAction = eAction_SelectRegelparamMenue; // taste 1 left gedrückt
		if(ctaste & KEY_RIGHT) { cAction = eAction_BearbeiteWert; cPara = ePara_Regelparam_Kd2; } // taste 2 right gedrückt
		if(ctaste & KEY_UP) cAction = eAction_MenueUp; // taste 3 up gedrückt
    25e4:	80 fd       	sbrc	r24, 0
    25e6:	91 e1       	ldi	r25, 0x11	; 17
		if(ctaste & KEY_DOWN) cAction = eAction_MenueDown; // taste 4 down gedrückt
    25e8:	82 ff       	sbrs	r24, 2
    25ea:	4c c0       	rjmp	.+152    	; 0x2684 <_Z16vTasteBearbeitenc+0x50e>
    25ec:	92 e1       	ldi	r25, 0x12	; 18
    25ee:	4a c0       	rjmp	.+148    	; 0x2684 <_Z16vTasteBearbeitenc+0x50e>
		break;
	case eDisplay_WertBearbeiten:
		if(ctaste & KEY_LEFT) cAction = eAction_BearbeiteEsc; // taste 1 left gedrückt
    25f0:	81 ff       	sbrs	r24, 1
    25f2:	02 c0       	rjmp	.+4      	; 0x25f8 <_Z16vTasteBearbeitenc+0x482>
    25f4:	9f e0       	ldi	r25, 0x0F	; 15
    25f6:	01 c0       	rjmp	.+2      	; 0x25fa <_Z16vTasteBearbeitenc+0x484>
	ucUpdateDisplay = 1;
}

void vTasteBearbeiten(const char ctaste)
{
	char cAction = eAction_None;
    25f8:	90 e0       	ldi	r25, 0x00	; 0
		if(ctaste & KEY_UP) cAction = eAction_MenueUp; // taste 3 up gedrückt
		if(ctaste & KEY_DOWN) cAction = eAction_MenueDown; // taste 4 down gedrückt
		break;
	case eDisplay_WertBearbeiten:
		if(ctaste & KEY_LEFT) cAction = eAction_BearbeiteEsc; // taste 1 left gedrückt
		if(ctaste & KEY_RIGHT) cAction = eAction_SpeicherWert; // taste 2 right gedrückt
    25fa:	83 fd       	sbrc	r24, 3
    25fc:	90 e1       	ldi	r25, 0x10	; 16
		if(ctaste & KEY_UP) cAction = eAction_WertDown; // taste 3 up gedrückt
    25fe:	80 fd       	sbrc	r24, 0
    2600:	94 e1       	ldi	r25, 0x14	; 20
		if(ctaste & KEY_DOWN) cAction = eAction_WertUp; // taste 4 down gedrückt
    2602:	82 ff       	sbrs	r24, 2
    2604:	3a c0       	rjmp	.+116    	; 0x267a <_Z16vTasteBearbeitenc+0x504>
}

void vTasteBearbeiten(const char ctaste)
{
	char cAction = eAction_None;
	uint16_t cPara = 0;
    2606:	60 e0       	ldi	r22, 0x00	; 0
    2608:	70 e0       	ldi	r23, 0x00	; 0
		break;
	case eDisplay_WertBearbeiten:
		if(ctaste & KEY_LEFT) cAction = eAction_BearbeiteEsc; // taste 1 left gedrückt
		if(ctaste & KEY_RIGHT) cAction = eAction_SpeicherWert; // taste 2 right gedrückt
		if(ctaste & KEY_UP) cAction = eAction_WertDown; // taste 3 up gedrückt
		if(ctaste & KEY_DOWN) cAction = eAction_WertUp; // taste 4 down gedrückt
    260a:	93 e1       	ldi	r25, 0x13	; 19
    260c:	3b c0       	rjmp	.+118    	; 0x2684 <_Z16vTasteBearbeitenc+0x50e>
		break;
	default:
	case eDisplay_Last:
		if(ctaste & KEY_LEFT) cAction = eAction_SelectGrundMenue; // taste 1 left gedrückt
		if(ctaste & KEY_RIGHT) cAction = eAction_SelectGrundMenue; // taste 2 right gedrückt
    260e:	83 fd       	sbrc	r24, 3
    2610:	04 c0       	rjmp	.+8      	; 0x261a <_Z16vTasteBearbeitenc+0x4a4>
	ucUpdateDisplay = 1;
}

void vTasteBearbeiten(const char ctaste)
{
	char cAction = eAction_None;
    2612:	81 fb       	bst	r24, 1
    2614:	99 27       	eor	r25, r25
    2616:	90 f9       	bld	r25, 0
    2618:	01 c0       	rjmp	.+2      	; 0x261c <_Z16vTasteBearbeitenc+0x4a6>
		if(ctaste & KEY_DOWN) cAction = eAction_WertUp; // taste 4 down gedrückt
		break;
	default:
	case eDisplay_Last:
		if(ctaste & KEY_LEFT) cAction = eAction_SelectGrundMenue; // taste 1 left gedrückt
		if(ctaste & KEY_RIGHT) cAction = eAction_SelectGrundMenue; // taste 2 right gedrückt
    261a:	91 e0       	ldi	r25, 0x01	; 1
		if(ctaste & KEY_UP) cAction = eAction_SelectGrundMenue; // taste 3 up gedrückt
    261c:	80 fd       	sbrc	r24, 0
    261e:	91 e0       	ldi	r25, 0x01	; 1
		if(ctaste & KEY_DOWN) cAction = eAction_SelectGrundMenue; // taste 4 down gedrückt
    2620:	82 ff       	sbrs	r24, 2
    2622:	2e c0       	rjmp	.+92     	; 0x2680 <_Z16vTasteBearbeitenc+0x50a>
}

void vTasteBearbeiten(const char ctaste)
{
	char cAction = eAction_None;
	uint16_t cPara = 0;
    2624:	60 e0       	ldi	r22, 0x00	; 0
    2626:	70 e0       	ldi	r23, 0x00	; 0
	default:
	case eDisplay_Last:
		if(ctaste & KEY_LEFT) cAction = eAction_SelectGrundMenue; // taste 1 left gedrückt
		if(ctaste & KEY_RIGHT) cAction = eAction_SelectGrundMenue; // taste 2 right gedrückt
		if(ctaste & KEY_UP) cAction = eAction_SelectGrundMenue; // taste 3 up gedrückt
		if(ctaste & KEY_DOWN) cAction = eAction_SelectGrundMenue; // taste 4 down gedrückt
    2628:	91 e0       	ldi	r25, 0x01	; 1
    262a:	2c c0       	rjmp	.+88     	; 0x2684 <_Z16vTasteBearbeitenc+0x50e>
}

void vTasteBearbeiten(const char ctaste)
{
	char cAction = eAction_None;
	uint16_t cPara = 0;
    262c:	60 e0       	ldi	r22, 0x00	; 0
    262e:	70 e0       	ldi	r23, 0x00	; 0
    2630:	29 c0       	rjmp	.+82     	; 0x2684 <_Z16vTasteBearbeitenc+0x50e>
    2632:	60 e0       	ldi	r22, 0x00	; 0
    2634:	70 e0       	ldi	r23, 0x00	; 0
    2636:	26 c0       	rjmp	.+76     	; 0x2684 <_Z16vTasteBearbeitenc+0x50e>
    2638:	60 e0       	ldi	r22, 0x00	; 0
    263a:	70 e0       	ldi	r23, 0x00	; 0
    263c:	23 c0       	rjmp	.+70     	; 0x2684 <_Z16vTasteBearbeitenc+0x50e>
    263e:	60 e0       	ldi	r22, 0x00	; 0
    2640:	70 e0       	ldi	r23, 0x00	; 0
    2642:	20 c0       	rjmp	.+64     	; 0x2684 <_Z16vTasteBearbeitenc+0x50e>
    2644:	60 e0       	ldi	r22, 0x00	; 0
    2646:	70 e0       	ldi	r23, 0x00	; 0
    2648:	1d c0       	rjmp	.+58     	; 0x2684 <_Z16vTasteBearbeitenc+0x50e>
    264a:	60 e0       	ldi	r22, 0x00	; 0
    264c:	70 e0       	ldi	r23, 0x00	; 0
    264e:	1a c0       	rjmp	.+52     	; 0x2684 <_Z16vTasteBearbeitenc+0x50e>
    2650:	60 e0       	ldi	r22, 0x00	; 0
    2652:	70 e0       	ldi	r23, 0x00	; 0
    2654:	17 c0       	rjmp	.+46     	; 0x2684 <_Z16vTasteBearbeitenc+0x50e>
    2656:	60 e0       	ldi	r22, 0x00	; 0
    2658:	70 e0       	ldi	r23, 0x00	; 0
    265a:	14 c0       	rjmp	.+40     	; 0x2684 <_Z16vTasteBearbeitenc+0x50e>
    265c:	60 e0       	ldi	r22, 0x00	; 0
    265e:	70 e0       	ldi	r23, 0x00	; 0
    2660:	11 c0       	rjmp	.+34     	; 0x2684 <_Z16vTasteBearbeitenc+0x50e>
    2662:	60 e0       	ldi	r22, 0x00	; 0
    2664:	70 e0       	ldi	r23, 0x00	; 0
    2666:	0e c0       	rjmp	.+28     	; 0x2684 <_Z16vTasteBearbeitenc+0x50e>
    2668:	60 e0       	ldi	r22, 0x00	; 0
    266a:	70 e0       	ldi	r23, 0x00	; 0
    266c:	0b c0       	rjmp	.+22     	; 0x2684 <_Z16vTasteBearbeitenc+0x50e>
    266e:	60 e0       	ldi	r22, 0x00	; 0
    2670:	70 e0       	ldi	r23, 0x00	; 0
    2672:	08 c0       	rjmp	.+16     	; 0x2684 <_Z16vTasteBearbeitenc+0x50e>
    2674:	60 e0       	ldi	r22, 0x00	; 0
    2676:	70 e0       	ldi	r23, 0x00	; 0
    2678:	05 c0       	rjmp	.+10     	; 0x2684 <_Z16vTasteBearbeitenc+0x50e>
    267a:	60 e0       	ldi	r22, 0x00	; 0
    267c:	70 e0       	ldi	r23, 0x00	; 0
    267e:	02 c0       	rjmp	.+4      	; 0x2684 <_Z16vTasteBearbeitenc+0x50e>
    2680:	60 e0       	ldi	r22, 0x00	; 0
    2682:	70 e0       	ldi	r23, 0x00	; 0
		if(ctaste & KEY_DOWN) cAction = eAction_SelectGrundMenue; // taste 4 down gedrückt
		break;
		
	}
	
	vActionExec(cAction,cPara);
    2684:	89 2f       	mov	r24, r25
    2686:	0e 94 5c 0f 	call	0x1eb8	; 0x1eb8 <_Z11vActionExeccj>
    268a:	08 95       	ret

0000268c <_Z10vCheckKeysv>:
	lcd_setcursor(0,2);
	lcd_string(nDisplayPuffer.z2);
}

void vCheckKeys()
{
    268c:	cf 93       	push	r28
	static char ctasteSpeicher = 0;
	
	const char ctaste = (PINC & 0x0F);
    268e:	c3 b3       	in	r28, 0x13	; 19
    2690:	cf 70       	andi	r28, 0x0F	; 15
	if ((ctaste & (~ctasteSpeicher)) != 0)
    2692:	80 91 0c 06 	lds	r24, 0x060C	; 0x80060c <_ZZ10vCheckKeysvE14ctasteSpeicher>
    2696:	90 e0       	ldi	r25, 0x00	; 0
    2698:	80 95       	com	r24
    269a:	90 95       	com	r25
    269c:	2c 2f       	mov	r18, r28
    269e:	30 e0       	ldi	r19, 0x00	; 0
    26a0:	82 23       	and	r24, r18
    26a2:	93 23       	and	r25, r19
    26a4:	89 2b       	or	r24, r25
    26a6:	19 f0       	breq	.+6      	; 0x26ae <_Z10vCheckKeysv+0x22>
	{
		vTasteBearbeiten(ctaste);
    26a8:	8c 2f       	mov	r24, r28
    26aa:	0e 94 bb 10 	call	0x2176	; 0x2176 <_Z16vTasteBearbeitenc>
	}
	ctasteSpeicher = ctaste;
    26ae:	c0 93 0c 06 	sts	0x060C, r28	; 0x80060c <_ZZ10vCheckKeysvE14ctasteSpeicher>
}
    26b2:	cf 91       	pop	r28
    26b4:	08 95       	ret

000026b6 <_Z8pid_initP8PID_paraPiS1_S1_>:
 */

#include "main.h"

void pid_init(PID_para *para, int16_t *Kp, int16_t *Ki, int16_t *Kd)
{
    26b6:	fc 01       	movw	r30, r24
    para->pid_Kp = Kp;
    26b8:	71 83       	std	Z+1, r23	; 0x01
    26ba:	60 83       	st	Z, r22
    para->pid_Ki = Ki;
    26bc:	53 83       	std	Z+3, r21	; 0x03
    26be:	42 83       	std	Z+2, r20	; 0x02
    para->pid_Kd = Kd;
    26c0:	35 83       	std	Z+5, r19	; 0x05
    26c2:	24 83       	std	Z+4, r18	; 0x04

    para->pid_P = 0;
    26c4:	16 82       	std	Z+6, r1	; 0x06
    26c6:	17 82       	std	Z+7, r1	; 0x07
    26c8:	10 86       	std	Z+8, r1	; 0x08
    26ca:	11 86       	std	Z+9, r1	; 0x09
    para->pid_I = 0;
    26cc:	12 86       	std	Z+10, r1	; 0x0a
    26ce:	13 86       	std	Z+11, r1	; 0x0b
    26d0:	14 86       	std	Z+12, r1	; 0x0c
    26d2:	15 86       	std	Z+13, r1	; 0x0d
    para->pid_D = 0;
    26d4:	16 86       	std	Z+14, r1	; 0x0e
    26d6:	17 86       	std	Z+15, r1	; 0x0f
    26d8:	10 8a       	std	Z+16, r1	; 0x10
    26da:	11 8a       	std	Z+17, r1	; 0x11
	para->start = 1;
    26dc:	81 e0       	ldi	r24, 0x01	; 1
    26de:	86 8b       	std	Z+22, r24	; 0x16
    26e0:	08 95       	ret

000026e2 <_Z9pid_resetP8PID_para>:
}

void pid_reset(PID_para *para)
{
    26e2:	fc 01       	movw	r30, r24
    para->pid_P = 0;
    26e4:	16 82       	std	Z+6, r1	; 0x06
    26e6:	17 82       	std	Z+7, r1	; 0x07
    26e8:	10 86       	std	Z+8, r1	; 0x08
    26ea:	11 86       	std	Z+9, r1	; 0x09
    para->pid_I = 0;
    26ec:	12 86       	std	Z+10, r1	; 0x0a
    26ee:	13 86       	std	Z+11, r1	; 0x0b
    26f0:	14 86       	std	Z+12, r1	; 0x0c
    26f2:	15 86       	std	Z+13, r1	; 0x0d
    para->pid_D = 0;
    26f4:	16 86       	std	Z+14, r1	; 0x0e
    26f6:	17 86       	std	Z+15, r1	; 0x0f
    26f8:	10 8a       	std	Z+16, r1	; 0x10
    26fa:	11 8a       	std	Z+17, r1	; 0x11
    26fc:	08 95       	ret

000026fe <_Z9pid_2_pwmf>:
    retval = ((para->pid_P + para->pid_I + para->pid_D) / SCALE);
    return pid_2_pwm(retval);
}

uint8_t pid_2_pwm(float erg)
{
    26fe:	cf 92       	push	r12
    2700:	df 92       	push	r13
    2702:	ef 92       	push	r14
    2704:	ff 92       	push	r15
    2706:	6b 01       	movw	r12, r22
    2708:	7c 01       	movw	r14, r24
  if(erg > 255.0) erg = 255.0;
    270a:	20 e0       	ldi	r18, 0x00	; 0
    270c:	30 e0       	ldi	r19, 0x00	; 0
    270e:	4f e7       	ldi	r20, 0x7F	; 127
    2710:	53 e4       	ldi	r21, 0x43	; 67
    2712:	0e 94 d0 17 	call	0x2fa0	; 0x2fa0 <__gesf2>
    2716:	18 16       	cp	r1, r24
    2718:	6c f0       	brlt	.+26     	; 0x2734 <_Z9pid_2_pwmf+0x36>
  if(erg < 0) erg = 0;
    271a:	20 e0       	ldi	r18, 0x00	; 0
    271c:	30 e0       	ldi	r19, 0x00	; 0
    271e:	a9 01       	movw	r20, r18
    2720:	c7 01       	movw	r24, r14
    2722:	b6 01       	movw	r22, r12
    2724:	0e 94 78 16 	call	0x2cf0	; 0x2cf0 <__cmpsf2>
    2728:	88 23       	and	r24, r24
    272a:	64 f4       	brge	.+24     	; 0x2744 <_Z9pid_2_pwmf+0x46>
    272c:	c1 2c       	mov	r12, r1
    272e:	d1 2c       	mov	r13, r1
    2730:	76 01       	movw	r14, r12
    2732:	08 c0       	rjmp	.+16     	; 0x2744 <_Z9pid_2_pwmf+0x46>
    return pid_2_pwm(retval);
}

uint8_t pid_2_pwm(float erg)
{
  if(erg > 255.0) erg = 255.0;
    2734:	0f 2e       	mov	r0, r31
    2736:	c1 2c       	mov	r12, r1
    2738:	d1 2c       	mov	r13, r1
    273a:	ff e7       	ldi	r31, 0x7F	; 127
    273c:	ef 2e       	mov	r14, r31
    273e:	f3 e4       	ldi	r31, 0x43	; 67
    2740:	ff 2e       	mov	r15, r31
    2742:	f0 2d       	mov	r31, r0
  if(erg < 0) erg = 0;
    return(uint8_t)erg;
    2744:	c7 01       	movw	r24, r14
    2746:	b6 01       	movw	r22, r12
    2748:	0e 94 ef 16 	call	0x2dde	; 0x2dde <__fixunssfsi>
    274c:	86 2f       	mov	r24, r22
}
    274e:	ff 90       	pop	r15
    2750:	ef 90       	pop	r14
    2752:	df 90       	pop	r13
    2754:	cf 90       	pop	r12
    2756:	08 95       	ret

00002758 <_Z10pid_updateP8PID_paraff>:
    para->pid_I = 0;
    para->pid_D = 0;
}

uint8_t pid_update(PID_para *para, float sollwert, float istwert)
{
    2758:	6f 92       	push	r6
    275a:	7f 92       	push	r7
    275c:	8f 92       	push	r8
    275e:	9f 92       	push	r9
    2760:	af 92       	push	r10
    2762:	bf 92       	push	r11
    2764:	cf 92       	push	r12
    2766:	df 92       	push	r13
    2768:	ef 92       	push	r14
    276a:	ff 92       	push	r15
    276c:	0f 93       	push	r16
    276e:	1f 93       	push	r17
    2770:	cf 93       	push	r28
    2772:	df 93       	push	r29
    2774:	ec 01       	movw	r28, r24
    2776:	cb 01       	movw	r24, r22
    2778:	ba 01       	movw	r22, r20
    float pid_error_last = para->pid_error;
    277a:	9a 88       	ldd	r9, Y+18	; 0x12
    277c:	8b 88       	ldd	r8, Y+19	; 0x13
    277e:	7c 88       	ldd	r7, Y+20	; 0x14
    2780:	6d 88       	ldd	r6, Y+21	; 0x15
    float retval;

    para->pid_error = sollwert - istwert;
    2782:	a9 01       	movw	r20, r18
    2784:	98 01       	movw	r18, r16
    2786:	0e 94 0b 16 	call	0x2c16	; 0x2c16 <__subsf3>
    278a:	16 2f       	mov	r17, r22
    278c:	07 2f       	mov	r16, r23
    278e:	b8 2e       	mov	r11, r24
    2790:	a9 2e       	mov	r10, r25
    2792:	86 2f       	mov	r24, r22
    2794:	90 2f       	mov	r25, r16
    2796:	ab 2d       	mov	r26, r11
    2798:	ba 2d       	mov	r27, r10
    279a:	8a 8b       	std	Y+18, r24	; 0x12
    279c:	9b 8b       	std	Y+19, r25	; 0x13
    279e:	ac 8b       	std	Y+20, r26	; 0x14
    27a0:	bd 8b       	std	Y+21, r27	; 0x15

    para->pid_P = para->pid_error * ((float)(*para->pid_Kp) / 100.0);
    27a2:	e8 81       	ld	r30, Y
    27a4:	f9 81       	ldd	r31, Y+1	; 0x01
    27a6:	60 81       	ld	r22, Z
    27a8:	71 81       	ldd	r23, Z+1	; 0x01
    27aa:	07 2e       	mov	r0, r23
    27ac:	00 0c       	add	r0, r0
    27ae:	88 0b       	sbc	r24, r24
    27b0:	99 0b       	sbc	r25, r25
    27b2:	0e 94 20 17 	call	0x2e40	; 0x2e40 <__floatsisf>
    27b6:	20 e0       	ldi	r18, 0x00	; 0
    27b8:	30 e0       	ldi	r19, 0x00	; 0
    27ba:	48 ec       	ldi	r20, 0xC8	; 200
    27bc:	52 e4       	ldi	r21, 0x42	; 66
    27be:	0e 94 7d 16 	call	0x2cfa	; 0x2cfa <__divsf3>
    27c2:	21 2f       	mov	r18, r17
    27c4:	30 2f       	mov	r19, r16
    27c6:	4b 2d       	mov	r20, r11
    27c8:	5a 2d       	mov	r21, r10
    27ca:	0e 94 d5 17 	call	0x2faa	; 0x2faa <__mulsf3>
    27ce:	6b 01       	movw	r12, r22
    27d0:	7c 01       	movw	r14, r24
	if (para->pid_P > PID_MAX)
    27d2:	20 e0       	ldi	r18, 0x00	; 0
    27d4:	30 e0       	ldi	r19, 0x00	; 0
    27d6:	4f e7       	ldi	r20, 0x7F	; 127
    27d8:	53 e4       	ldi	r21, 0x43	; 67
    27da:	0e 94 d0 17 	call	0x2fa0	; 0x2fa0 <__gesf2>
    27de:	18 16       	cp	r1, r24
    27e0:	4c f4       	brge	.+18     	; 0x27f4 <_Z10pid_updateP8PID_paraff+0x9c>
	{
		para->pid_P = (float)PID_MAX;
    27e2:	80 e0       	ldi	r24, 0x00	; 0
    27e4:	90 e0       	ldi	r25, 0x00	; 0
    27e6:	af e7       	ldi	r26, 0x7F	; 127
    27e8:	b3 e4       	ldi	r27, 0x43	; 67
    27ea:	8e 83       	std	Y+6, r24	; 0x06
    27ec:	9f 83       	std	Y+7, r25	; 0x07
    27ee:	a8 87       	std	Y+8, r26	; 0x08
    27f0:	b9 87       	std	Y+9, r27	; 0x09
    27f2:	17 c0       	rjmp	.+46     	; 0x2822 <_Z10pid_updateP8PID_paraff+0xca>
	}
	else if (para->pid_P < -PID_MAX)
    27f4:	20 e0       	ldi	r18, 0x00	; 0
    27f6:	30 e0       	ldi	r19, 0x00	; 0
    27f8:	4f e7       	ldi	r20, 0x7F	; 127
    27fa:	53 ec       	ldi	r21, 0xC3	; 195
    27fc:	c7 01       	movw	r24, r14
    27fe:	b6 01       	movw	r22, r12
    2800:	0e 94 78 16 	call	0x2cf0	; 0x2cf0 <__cmpsf2>
    2804:	88 23       	and	r24, r24
    2806:	2c f0       	brlt	.+10     	; 0x2812 <_Z10pid_updateP8PID_paraff+0xba>
    float pid_error_last = para->pid_error;
    float retval;

    para->pid_error = sollwert - istwert;

    para->pid_P = para->pid_error * ((float)(*para->pid_Kp) / 100.0);
    2808:	ce 82       	std	Y+6, r12	; 0x06
    280a:	df 82       	std	Y+7, r13	; 0x07
    280c:	e8 86       	std	Y+8, r14	; 0x08
    280e:	f9 86       	std	Y+9, r15	; 0x09
    2810:	08 c0       	rjmp	.+16     	; 0x2822 <_Z10pid_updateP8PID_paraff+0xca>
	{
		para->pid_P = (float)PID_MAX;
	}
	else if (para->pid_P < -PID_MAX)
	{
		para->pid_P = (float)-PID_MAX;
    2812:	80 e0       	ldi	r24, 0x00	; 0
    2814:	90 e0       	ldi	r25, 0x00	; 0
    2816:	af e7       	ldi	r26, 0x7F	; 127
    2818:	b3 ec       	ldi	r27, 0xC3	; 195
    281a:	8e 83       	std	Y+6, r24	; 0x06
    281c:	9f 83       	std	Y+7, r25	; 0x07
    281e:	a8 87       	std	Y+8, r26	; 0x08
    2820:	b9 87       	std	Y+9, r27	; 0x09
	}


    para->pid_I = para->pid_I + para->pid_error * ((float)(*para->pid_Ki) / 100.0);
    2822:	ea 81       	ldd	r30, Y+2	; 0x02
    2824:	fb 81       	ldd	r31, Y+3	; 0x03
    2826:	60 81       	ld	r22, Z
    2828:	71 81       	ldd	r23, Z+1	; 0x01
    282a:	07 2e       	mov	r0, r23
    282c:	00 0c       	add	r0, r0
    282e:	88 0b       	sbc	r24, r24
    2830:	99 0b       	sbc	r25, r25
    2832:	0e 94 20 17 	call	0x2e40	; 0x2e40 <__floatsisf>
    2836:	20 e0       	ldi	r18, 0x00	; 0
    2838:	30 e0       	ldi	r19, 0x00	; 0
    283a:	48 ec       	ldi	r20, 0xC8	; 200
    283c:	52 e4       	ldi	r21, 0x42	; 66
    283e:	0e 94 7d 16 	call	0x2cfa	; 0x2cfa <__divsf3>
    2842:	21 2f       	mov	r18, r17
    2844:	30 2f       	mov	r19, r16
    2846:	4b 2d       	mov	r20, r11
    2848:	5a 2d       	mov	r21, r10
    284a:	0e 94 d5 17 	call	0x2faa	; 0x2faa <__mulsf3>
    284e:	2a 85       	ldd	r18, Y+10	; 0x0a
    2850:	3b 85       	ldd	r19, Y+11	; 0x0b
    2852:	4c 85       	ldd	r20, Y+12	; 0x0c
    2854:	5d 85       	ldd	r21, Y+13	; 0x0d
    2856:	0e 94 0c 16 	call	0x2c18	; 0x2c18 <__addsf3>
    285a:	6b 01       	movw	r12, r22
    285c:	7c 01       	movw	r14, r24
	if (para->pid_I > PID_MAX)
    285e:	20 e0       	ldi	r18, 0x00	; 0
    2860:	30 e0       	ldi	r19, 0x00	; 0
    2862:	4f e7       	ldi	r20, 0x7F	; 127
    2864:	53 e4       	ldi	r21, 0x43	; 67
    2866:	0e 94 d0 17 	call	0x2fa0	; 0x2fa0 <__gesf2>
    286a:	18 16       	cp	r1, r24
    286c:	4c f4       	brge	.+18     	; 0x2880 <_Z10pid_updateP8PID_paraff+0x128>
	{
		para->pid_I = (float)PID_MAX;
    286e:	80 e0       	ldi	r24, 0x00	; 0
    2870:	90 e0       	ldi	r25, 0x00	; 0
    2872:	af e7       	ldi	r26, 0x7F	; 127
    2874:	b3 e4       	ldi	r27, 0x43	; 67
    2876:	8a 87       	std	Y+10, r24	; 0x0a
    2878:	9b 87       	std	Y+11, r25	; 0x0b
    287a:	ac 87       	std	Y+12, r26	; 0x0c
    287c:	bd 87       	std	Y+13, r27	; 0x0d
    287e:	17 c0       	rjmp	.+46     	; 0x28ae <_Z10pid_updateP8PID_paraff+0x156>
	}
	else if (para->pid_I < -PID_MAX)
    2880:	20 e0       	ldi	r18, 0x00	; 0
    2882:	30 e0       	ldi	r19, 0x00	; 0
    2884:	4f e7       	ldi	r20, 0x7F	; 127
    2886:	53 ec       	ldi	r21, 0xC3	; 195
    2888:	c7 01       	movw	r24, r14
    288a:	b6 01       	movw	r22, r12
    288c:	0e 94 78 16 	call	0x2cf0	; 0x2cf0 <__cmpsf2>
    2890:	88 23       	and	r24, r24
    2892:	2c f0       	brlt	.+10     	; 0x289e <_Z10pid_updateP8PID_paraff+0x146>
	{
		para->pid_P = (float)-PID_MAX;
	}


    para->pid_I = para->pid_I + para->pid_error * ((float)(*para->pid_Ki) / 100.0);
    2894:	ca 86       	std	Y+10, r12	; 0x0a
    2896:	db 86       	std	Y+11, r13	; 0x0b
    2898:	ec 86       	std	Y+12, r14	; 0x0c
    289a:	fd 86       	std	Y+13, r15	; 0x0d
    289c:	08 c0       	rjmp	.+16     	; 0x28ae <_Z10pid_updateP8PID_paraff+0x156>
	{
		para->pid_I = (float)PID_MAX;
	}
	else if (para->pid_I < -PID_MAX)
	{
		para->pid_I = (float)-PID_MAX;
    289e:	80 e0       	ldi	r24, 0x00	; 0
    28a0:	90 e0       	ldi	r25, 0x00	; 0
    28a2:	af e7       	ldi	r26, 0x7F	; 127
    28a4:	b3 ec       	ldi	r27, 0xC3	; 195
    28a6:	8a 87       	std	Y+10, r24	; 0x0a
    28a8:	9b 87       	std	Y+11, r25	; 0x0b
    28aa:	ac 87       	std	Y+12, r26	; 0x0c
    28ac:	bd 87       	std	Y+13, r27	; 0x0d
	}

    if(para->start){
    28ae:	8e 89       	ldd	r24, Y+22	; 0x16
    28b0:	88 23       	and	r24, r24
    28b2:	29 f0       	breq	.+10     	; 0x28be <_Z10pid_updateP8PID_paraff+0x166>
        pid_error_last = para->pid_error;
        para->start = 0;
    28b4:	1e 8a       	std	Y+22, r1	; 0x16
	{
		para->pid_I = (float)-PID_MAX;
	}

    if(para->start){
        pid_error_last = para->pid_error;
    28b6:	91 2e       	mov	r9, r17
    28b8:	80 2e       	mov	r8, r16
    28ba:	7b 2c       	mov	r7, r11
    28bc:	6a 2c       	mov	r6, r10
        para->start = 0;
    }

    para->pid_D = (pid_error_last - para->pid_error) * ((float)(*para->pid_Kd) / 100.0);
    28be:	ec 81       	ldd	r30, Y+4	; 0x04
    28c0:	fd 81       	ldd	r31, Y+5	; 0x05
    28c2:	60 81       	ld	r22, Z
    28c4:	71 81       	ldd	r23, Z+1	; 0x01
    28c6:	07 2e       	mov	r0, r23
    28c8:	00 0c       	add	r0, r0
    28ca:	88 0b       	sbc	r24, r24
    28cc:	99 0b       	sbc	r25, r25
    28ce:	0e 94 20 17 	call	0x2e40	; 0x2e40 <__floatsisf>
    28d2:	20 e0       	ldi	r18, 0x00	; 0
    28d4:	30 e0       	ldi	r19, 0x00	; 0
    28d6:	48 ec       	ldi	r20, 0xC8	; 200
    28d8:	52 e4       	ldi	r21, 0x42	; 66
    28da:	0e 94 7d 16 	call	0x2cfa	; 0x2cfa <__divsf3>
    28de:	6b 01       	movw	r12, r22
    28e0:	7c 01       	movw	r14, r24
    28e2:	21 2f       	mov	r18, r17
    28e4:	30 2f       	mov	r19, r16
    28e6:	4b 2d       	mov	r20, r11
    28e8:	5a 2d       	mov	r21, r10
    28ea:	69 2d       	mov	r22, r9
    28ec:	78 2d       	mov	r23, r8
    28ee:	87 2d       	mov	r24, r7
    28f0:	96 2d       	mov	r25, r6
    28f2:	0e 94 0b 16 	call	0x2c16	; 0x2c16 <__subsf3>
    28f6:	9b 01       	movw	r18, r22
    28f8:	ac 01       	movw	r20, r24
    28fa:	c7 01       	movw	r24, r14
    28fc:	b6 01       	movw	r22, r12
    28fe:	0e 94 d5 17 	call	0x2faa	; 0x2faa <__mulsf3>
    2902:	6b 01       	movw	r12, r22
    2904:	7c 01       	movw	r14, r24
	if (para->pid_D > PID_MAX)
    2906:	20 e0       	ldi	r18, 0x00	; 0
    2908:	30 e0       	ldi	r19, 0x00	; 0
    290a:	4f e7       	ldi	r20, 0x7F	; 127
    290c:	53 e4       	ldi	r21, 0x43	; 67
    290e:	0e 94 d0 17 	call	0x2fa0	; 0x2fa0 <__gesf2>
    2912:	18 16       	cp	r1, r24
    2914:	4c f4       	brge	.+18     	; 0x2928 <_Z10pid_updateP8PID_paraff+0x1d0>
	{
		para->pid_D = (float)PID_MAX;
    2916:	80 e0       	ldi	r24, 0x00	; 0
    2918:	90 e0       	ldi	r25, 0x00	; 0
    291a:	af e7       	ldi	r26, 0x7F	; 127
    291c:	b3 e4       	ldi	r27, 0x43	; 67
    291e:	8e 87       	std	Y+14, r24	; 0x0e
    2920:	9f 87       	std	Y+15, r25	; 0x0f
    2922:	a8 8b       	std	Y+16, r26	; 0x10
    2924:	b9 8b       	std	Y+17, r27	; 0x11
    2926:	17 c0       	rjmp	.+46     	; 0x2956 <_Z10pid_updateP8PID_paraff+0x1fe>
	}
	else if (para->pid_D < -PID_MAX)
    2928:	20 e0       	ldi	r18, 0x00	; 0
    292a:	30 e0       	ldi	r19, 0x00	; 0
    292c:	4f e7       	ldi	r20, 0x7F	; 127
    292e:	53 ec       	ldi	r21, 0xC3	; 195
    2930:	c7 01       	movw	r24, r14
    2932:	b6 01       	movw	r22, r12
    2934:	0e 94 78 16 	call	0x2cf0	; 0x2cf0 <__cmpsf2>
    2938:	88 23       	and	r24, r24
    293a:	2c f0       	brlt	.+10     	; 0x2946 <_Z10pid_updateP8PID_paraff+0x1ee>
    if(para->start){
        pid_error_last = para->pid_error;
        para->start = 0;
    }

    para->pid_D = (pid_error_last - para->pid_error) * ((float)(*para->pid_Kd) / 100.0);
    293c:	ce 86       	std	Y+14, r12	; 0x0e
    293e:	df 86       	std	Y+15, r13	; 0x0f
    2940:	e8 8a       	std	Y+16, r14	; 0x10
    2942:	f9 8a       	std	Y+17, r15	; 0x11
    2944:	08 c0       	rjmp	.+16     	; 0x2956 <_Z10pid_updateP8PID_paraff+0x1fe>
	{
		para->pid_D = (float)PID_MAX;
	}
	else if (para->pid_D < -PID_MAX)
	{
		para->pid_D = (float)-PID_MAX;
    2946:	80 e0       	ldi	r24, 0x00	; 0
    2948:	90 e0       	ldi	r25, 0x00	; 0
    294a:	af e7       	ldi	r26, 0x7F	; 127
    294c:	b3 ec       	ldi	r27, 0xC3	; 195
    294e:	8e 87       	std	Y+14, r24	; 0x0e
    2950:	9f 87       	std	Y+15, r25	; 0x0f
    2952:	a8 8b       	std	Y+16, r26	; 0x10
    2954:	b9 8b       	std	Y+17, r27	; 0x11
	}

    retval = ((para->pid_P + para->pid_I + para->pid_D) / SCALE);
    return pid_2_pwm(retval);
    2956:	2a 85       	ldd	r18, Y+10	; 0x0a
    2958:	3b 85       	ldd	r19, Y+11	; 0x0b
    295a:	4c 85       	ldd	r20, Y+12	; 0x0c
    295c:	5d 85       	ldd	r21, Y+13	; 0x0d
    295e:	6e 81       	ldd	r22, Y+6	; 0x06
    2960:	7f 81       	ldd	r23, Y+7	; 0x07
    2962:	88 85       	ldd	r24, Y+8	; 0x08
    2964:	99 85       	ldd	r25, Y+9	; 0x09
    2966:	0e 94 0c 16 	call	0x2c18	; 0x2c18 <__addsf3>
    296a:	2e 85       	ldd	r18, Y+14	; 0x0e
    296c:	3f 85       	ldd	r19, Y+15	; 0x0f
    296e:	48 89       	ldd	r20, Y+16	; 0x10
    2970:	59 89       	ldd	r21, Y+17	; 0x11
    2972:	0e 94 0c 16 	call	0x2c18	; 0x2c18 <__addsf3>
    2976:	0e 94 7f 13 	call	0x26fe	; 0x26fe <_Z9pid_2_pwmf>
}
    297a:	df 91       	pop	r29
    297c:	cf 91       	pop	r28
    297e:	1f 91       	pop	r17
    2980:	0f 91       	pop	r16
    2982:	ff 90       	pop	r15
    2984:	ef 90       	pop	r14
    2986:	df 90       	pop	r13
    2988:	cf 90       	pop	r12
    298a:	bf 90       	pop	r11
    298c:	af 90       	pop	r10
    298e:	9f 90       	pop	r9
    2990:	8f 90       	pop	r8
    2992:	7f 90       	pop	r7
    2994:	6f 90       	pop	r6
    2996:	08 95       	ret

00002998 <_Z12softPWM_initv>:
#include "soft_pwm.h"
#include "hardware.h"
 
softPWM_info softPWM_channel[PWM_CHANNELS];
 
void softPWM_init(){
    2998:	0f 93       	push	r16
    299a:	1f 93       	push	r17
    299c:	cf 93       	push	r28
    299e:	df 93       	push	r29
    29a0:	e5 e3       	ldi	r30, 0x35	; 53
    29a2:	f6 e0       	ldi	r31, 0x06	; 6
	for(int i = 0; i < PWM_CHANNELS; i++){
    29a4:	80 e0       	ldi	r24, 0x00	; 0
    29a6:	90 e0       	ldi	r25, 0x00	; 0
				case e_softPWM_inverted:
					*softPWM_channel[i].PORT |= (1 << softPWM_channel[i].PIN);
					break;
				default: break;
			}
			*softPWM_channel[i].DDR |= (1 << softPWM_channel[i].PIN);
    29a8:	41 e0       	ldi	r20, 0x01	; 1
    29aa:	50 e0       	ldi	r21, 0x00	; 0
    29ac:	ef 01       	movw	r28, r30
 
softPWM_info softPWM_channel[PWM_CHANNELS];
 
void softPWM_init(){
	for(int i = 0; i < PWM_CHANNELS; i++){
		if(softPWM_channel[i].modus != e_softPWM_off){		
    29ae:	26 81       	ldd	r18, Z+6	; 0x06
    29b0:	22 23       	and	r18, r18
    29b2:	09 f4       	brne	.+2      	; 0x29b6 <_Z12softPWM_initv+0x1e>
    29b4:	53 c0       	rjmp	.+166    	; 0x2a5c <_Z12softPWM_initv+0xc4>
			switch(softPWM_channel[i].modus){
    29b6:	21 30       	cpi	r18, 0x01	; 1
    29b8:	19 f0       	breq	.+6      	; 0x29c0 <_Z12softPWM_initv+0x28>
    29ba:	22 30       	cpi	r18, 0x02	; 2
    29bc:	e9 f0       	breq	.+58     	; 0x29f8 <_Z12softPWM_initv+0x60>
    29be:	35 c0       	rjmp	.+106    	; 0x2a2a <_Z12softPWM_initv+0x92>
				case e_softPWM_off:
					break;
				case e_softPWM_normal:
					*softPWM_channel[i].PORT &= ~(1 << softPWM_channel[i].PIN);
    29c0:	dc 01       	movw	r26, r24
    29c2:	aa 0f       	add	r26, r26
    29c4:	bb 1f       	adc	r27, r27
    29c6:	aa 0f       	add	r26, r26
    29c8:	bb 1f       	adc	r27, r27
    29ca:	aa 0f       	add	r26, r26
    29cc:	bb 1f       	adc	r27, r27
    29ce:	a8 1b       	sub	r26, r24
    29d0:	b9 0b       	sbc	r27, r25
    29d2:	ab 5c       	subi	r26, 0xCB	; 203
    29d4:	b9 4f       	sbci	r27, 0xF9	; 249
    29d6:	14 96       	adiw	r26, 0x04	; 4
    29d8:	2c 91       	ld	r18, X
    29da:	a2 81       	ldd	r26, Z+2	; 0x02
    29dc:	b3 81       	ldd	r27, Z+3	; 0x03
    29de:	6c 91       	ld	r22, X
    29e0:	8a 01       	movw	r16, r20
    29e2:	02 c0       	rjmp	.+4      	; 0x29e8 <_Z12softPWM_initv+0x50>
    29e4:	00 0f       	add	r16, r16
    29e6:	11 1f       	adc	r17, r17
    29e8:	2a 95       	dec	r18
    29ea:	e2 f7       	brpl	.-8      	; 0x29e4 <_Z12softPWM_initv+0x4c>
    29ec:	98 01       	movw	r18, r16
    29ee:	20 95       	com	r18
    29f0:	30 95       	com	r19
    29f2:	26 23       	and	r18, r22
    29f4:	2c 93       	st	X, r18
					break;
    29f6:	19 c0       	rjmp	.+50     	; 0x2a2a <_Z12softPWM_initv+0x92>
				case e_softPWM_inverted:
					*softPWM_channel[i].PORT |= (1 << softPWM_channel[i].PIN);
    29f8:	dc 01       	movw	r26, r24
    29fa:	aa 0f       	add	r26, r26
    29fc:	bb 1f       	adc	r27, r27
    29fe:	aa 0f       	add	r26, r26
    2a00:	bb 1f       	adc	r27, r27
    2a02:	aa 0f       	add	r26, r26
    2a04:	bb 1f       	adc	r27, r27
    2a06:	a8 1b       	sub	r26, r24
    2a08:	b9 0b       	sbc	r27, r25
    2a0a:	ab 5c       	subi	r26, 0xCB	; 203
    2a0c:	b9 4f       	sbci	r27, 0xF9	; 249
    2a0e:	14 96       	adiw	r26, 0x04	; 4
    2a10:	2c 91       	ld	r18, X
    2a12:	a2 81       	ldd	r26, Z+2	; 0x02
    2a14:	b3 81       	ldd	r27, Z+3	; 0x03
    2a16:	6c 91       	ld	r22, X
    2a18:	8a 01       	movw	r16, r20
    2a1a:	02 c0       	rjmp	.+4      	; 0x2a20 <_Z12softPWM_initv+0x88>
    2a1c:	00 0f       	add	r16, r16
    2a1e:	11 1f       	adc	r17, r17
    2a20:	2a 95       	dec	r18
    2a22:	e2 f7       	brpl	.-8      	; 0x2a1c <_Z12softPWM_initv+0x84>
    2a24:	98 01       	movw	r18, r16
    2a26:	26 2b       	or	r18, r22
    2a28:	2c 93       	st	X, r18
					break;
				default: break;
			}
			*softPWM_channel[i].DDR |= (1 << softPWM_channel[i].PIN);
    2a2a:	dc 01       	movw	r26, r24
    2a2c:	aa 0f       	add	r26, r26
    2a2e:	bb 1f       	adc	r27, r27
    2a30:	aa 0f       	add	r26, r26
    2a32:	bb 1f       	adc	r27, r27
    2a34:	aa 0f       	add	r26, r26
    2a36:	bb 1f       	adc	r27, r27
    2a38:	a8 1b       	sub	r26, r24
    2a3a:	b9 0b       	sbc	r27, r25
    2a3c:	ab 5c       	subi	r26, 0xCB	; 203
    2a3e:	b9 4f       	sbci	r27, 0xF9	; 249
    2a40:	14 96       	adiw	r26, 0x04	; 4
    2a42:	2c 91       	ld	r18, X
    2a44:	a8 81       	ld	r26, Y
    2a46:	b9 81       	ldd	r27, Y+1	; 0x01
    2a48:	6c 91       	ld	r22, X
    2a4a:	ea 01       	movw	r28, r20
    2a4c:	02 c0       	rjmp	.+4      	; 0x2a52 <_Z12softPWM_initv+0xba>
    2a4e:	cc 0f       	add	r28, r28
    2a50:	dd 1f       	adc	r29, r29
    2a52:	2a 95       	dec	r18
    2a54:	e2 f7       	brpl	.-8      	; 0x2a4e <_Z12softPWM_initv+0xb6>
    2a56:	9e 01       	movw	r18, r28
    2a58:	26 2b       	or	r18, r22
    2a5a:	2c 93       	st	X, r18
#include "hardware.h"
 
softPWM_info softPWM_channel[PWM_CHANNELS];
 
void softPWM_init(){
	for(int i = 0; i < PWM_CHANNELS; i++){
    2a5c:	01 96       	adiw	r24, 0x01	; 1
    2a5e:	37 96       	adiw	r30, 0x07	; 7
    2a60:	82 30       	cpi	r24, 0x02	; 2
    2a62:	91 05       	cpc	r25, r1
    2a64:	09 f0       	breq	.+2      	; 0x2a68 <_Z12softPWM_initv+0xd0>
    2a66:	a2 cf       	rjmp	.-188    	; 0x29ac <_Z12softPWM_initv+0x14>
				default: break;
			}
			*softPWM_channel[i].DDR |= (1 << softPWM_channel[i].PIN);
		}
	}
}
    2a68:	df 91       	pop	r29
    2a6a:	cf 91       	pop	r28
    2a6c:	1f 91       	pop	r17
    2a6e:	0f 91       	pop	r16
    2a70:	08 95       	ret

00002a72 <_Z13softPWM_resetv>:

void softPWM_reset(){
	for(int i = 0; i < PWM_CHANNELS; i++){
		*softPWM_channel[i].DDR = 0;
    2a72:	e5 e3       	ldi	r30, 0x35	; 53
    2a74:	f6 e0       	ldi	r31, 0x06	; 6
    2a76:	a0 81       	ld	r26, Z
    2a78:	b1 81       	ldd	r27, Z+1	; 0x01
    2a7a:	1c 92       	st	X, r1
		*softPWM_channel[i].PORT = 0;
    2a7c:	a2 81       	ldd	r26, Z+2	; 0x02
    2a7e:	b3 81       	ldd	r27, Z+3	; 0x03
    2a80:	1c 92       	st	X, r1
		softPWM_channel[i].PIN = 0;
    2a82:	14 82       	std	Z+4, r1	; 0x04
		softPWM_channel[i].value = 0;
    2a84:	15 82       	std	Z+5, r1	; 0x05
		softPWM_channel[i].modus = e_softPWM_off;
    2a86:	16 82       	std	Z+6, r1	; 0x06
	}
}

void softPWM_reset(){
	for(int i = 0; i < PWM_CHANNELS; i++){
		*softPWM_channel[i].DDR = 0;
    2a88:	a7 81       	ldd	r26, Z+7	; 0x07
    2a8a:	b0 85       	ldd	r27, Z+8	; 0x08
    2a8c:	1c 92       	st	X, r1
		*softPWM_channel[i].PORT = 0;
    2a8e:	a1 85       	ldd	r26, Z+9	; 0x09
    2a90:	b2 85       	ldd	r27, Z+10	; 0x0a
    2a92:	1c 92       	st	X, r1
		softPWM_channel[i].PIN = 0;
    2a94:	13 86       	std	Z+11, r1	; 0x0b
		softPWM_channel[i].value = 0;
    2a96:	14 86       	std	Z+12, r1	; 0x0c
		softPWM_channel[i].modus = e_softPWM_off;
    2a98:	15 86       	std	Z+13, r1	; 0x0d
    2a9a:	08 95       	ret

00002a9c <_Z14softPWM_updatev>:
	}
}

void softPWM_update(){
    2a9c:	cf 93       	push	r28
    2a9e:	df 93       	push	r29
	static uint8_t softPWM_count = 0;
	softPWM_count++;
    2aa0:	80 91 34 06 	lds	r24, 0x0634	; 0x800634 <_ZZ14softPWM_updatevE13softPWM_count>
    2aa4:	8f 5f       	subi	r24, 0xFF	; 255
    2aa6:	80 93 34 06 	sts	0x0634, r24	; 0x800634 <_ZZ14softPWM_updatevE13softPWM_count>

	if(softPWM_count == 0){
    2aaa:	81 11       	cpse	r24, r1
    2aac:	49 c0       	rjmp	.+146    	; 0x2b40 <_Z14softPWM_updatev+0xa4>
    2aae:	e5 e3       	ldi	r30, 0x35	; 53
    2ab0:	f6 e0       	ldi	r31, 0x06	; 6
    2ab2:	80 e0       	ldi	r24, 0x00	; 0
    2ab4:	90 e0       	ldi	r25, 0x00	; 0
			if(softPWM_channel[i].value != 0){
				switch(softPWM_channel[i].modus){
					case e_softPWM_off:
						break;
					case e_softPWM_normal:
						*softPWM_channel[i].PORT |= (1 << softPWM_channel[i].PIN);
    2ab6:	41 e0       	ldi	r20, 0x01	; 1
    2ab8:	50 e0       	ldi	r21, 0x00	; 0
	static uint8_t softPWM_count = 0;
	softPWM_count++;

	if(softPWM_count == 0){
		for(int i = 0; i < PWM_CHANNELS; i++){
			if(softPWM_channel[i].value != 0){
    2aba:	25 81       	ldd	r18, Z+5	; 0x05
    2abc:	22 23       	and	r18, r18
    2abe:	c9 f1       	breq	.+114    	; 0x2b32 <_Z14softPWM_updatev+0x96>
				switch(softPWM_channel[i].modus){
    2ac0:	26 81       	ldd	r18, Z+6	; 0x06
    2ac2:	21 30       	cpi	r18, 0x01	; 1
    2ac4:	19 f0       	breq	.+6      	; 0x2acc <_Z14softPWM_updatev+0x30>
    2ac6:	22 30       	cpi	r18, 0x02	; 2
    2ac8:	d1 f0       	breq	.+52     	; 0x2afe <_Z14softPWM_updatev+0x62>
    2aca:	33 c0       	rjmp	.+102    	; 0x2b32 <_Z14softPWM_updatev+0x96>
					case e_softPWM_off:
						break;
					case e_softPWM_normal:
						*softPWM_channel[i].PORT |= (1 << softPWM_channel[i].PIN);
    2acc:	ec 01       	movw	r28, r24
    2ace:	cc 0f       	add	r28, r28
    2ad0:	dd 1f       	adc	r29, r29
    2ad2:	cc 0f       	add	r28, r28
    2ad4:	dd 1f       	adc	r29, r29
    2ad6:	cc 0f       	add	r28, r28
    2ad8:	dd 1f       	adc	r29, r29
    2ada:	c8 1b       	sub	r28, r24
    2adc:	d9 0b       	sbc	r29, r25
    2ade:	cb 5c       	subi	r28, 0xCB	; 203
    2ae0:	d9 4f       	sbci	r29, 0xF9	; 249
    2ae2:	2c 81       	ldd	r18, Y+4	; 0x04
    2ae4:	a2 81       	ldd	r26, Z+2	; 0x02
    2ae6:	b3 81       	ldd	r27, Z+3	; 0x03
    2ae8:	6c 91       	ld	r22, X
    2aea:	ea 01       	movw	r28, r20
    2aec:	02 c0       	rjmp	.+4      	; 0x2af2 <_Z14softPWM_updatev+0x56>
    2aee:	cc 0f       	add	r28, r28
    2af0:	dd 1f       	adc	r29, r29
    2af2:	2a 95       	dec	r18
    2af4:	e2 f7       	brpl	.-8      	; 0x2aee <_Z14softPWM_updatev+0x52>
    2af6:	9e 01       	movw	r18, r28
    2af8:	26 2b       	or	r18, r22
    2afa:	2c 93       	st	X, r18
						break;
    2afc:	1a c0       	rjmp	.+52     	; 0x2b32 <_Z14softPWM_updatev+0x96>
					case e_softPWM_inverted:
						*softPWM_channel[i].PORT &= ~(1 << softPWM_channel[i].PIN);
    2afe:	ec 01       	movw	r28, r24
    2b00:	cc 0f       	add	r28, r28
    2b02:	dd 1f       	adc	r29, r29
    2b04:	cc 0f       	add	r28, r28
    2b06:	dd 1f       	adc	r29, r29
    2b08:	cc 0f       	add	r28, r28
    2b0a:	dd 1f       	adc	r29, r29
    2b0c:	c8 1b       	sub	r28, r24
    2b0e:	d9 0b       	sbc	r29, r25
    2b10:	cb 5c       	subi	r28, 0xCB	; 203
    2b12:	d9 4f       	sbci	r29, 0xF9	; 249
    2b14:	2c 81       	ldd	r18, Y+4	; 0x04
    2b16:	a2 81       	ldd	r26, Z+2	; 0x02
    2b18:	b3 81       	ldd	r27, Z+3	; 0x03
    2b1a:	6c 91       	ld	r22, X
    2b1c:	ea 01       	movw	r28, r20
    2b1e:	02 c0       	rjmp	.+4      	; 0x2b24 <_Z14softPWM_updatev+0x88>
    2b20:	cc 0f       	add	r28, r28
    2b22:	dd 1f       	adc	r29, r29
    2b24:	2a 95       	dec	r18
    2b26:	e2 f7       	brpl	.-8      	; 0x2b20 <_Z14softPWM_updatev+0x84>
    2b28:	9e 01       	movw	r18, r28
    2b2a:	20 95       	com	r18
    2b2c:	30 95       	com	r19
    2b2e:	26 23       	and	r18, r22
    2b30:	2c 93       	st	X, r18
void softPWM_update(){
	static uint8_t softPWM_count = 0;
	softPWM_count++;

	if(softPWM_count == 0){
		for(int i = 0; i < PWM_CHANNELS; i++){
    2b32:	01 96       	adiw	r24, 0x01	; 1
    2b34:	37 96       	adiw	r30, 0x07	; 7
    2b36:	82 30       	cpi	r24, 0x02	; 2
    2b38:	91 05       	cpc	r25, r1
    2b3a:	09 f0       	breq	.+2      	; 0x2b3e <_Z14softPWM_updatev+0xa2>
    2b3c:	be cf       	rjmp	.-132    	; 0x2aba <_Z14softPWM_updatev+0x1e>
    2b3e:	49 c0       	rjmp	.+146    	; 0x2bd2 <_Z14softPWM_updatev+0x136>
    2b40:	e5 e3       	ldi	r30, 0x35	; 53
    2b42:	f6 e0       	ldi	r31, 0x06	; 6

void softPWM_update(){
	static uint8_t softPWM_count = 0;
	softPWM_count++;

	if(softPWM_count == 0){
    2b44:	20 e0       	ldi	r18, 0x00	; 0
    2b46:	30 e0       	ldi	r19, 0x00	; 0
			if(softPWM_channel[i].value <= softPWM_count){
				switch(softPWM_channel[i].modus){
					case e_softPWM_off:
						break;
					case e_softPWM_normal:
						*softPWM_channel[i].PORT &= ~(1 << softPWM_channel[i].PIN);
    2b48:	61 e0       	ldi	r22, 0x01	; 1
    2b4a:	70 e0       	ldi	r23, 0x00	; 0
		}
	}
	else
	{
		for(int i = 0; i < PWM_CHANNELS; i++){
			if(softPWM_channel[i].value <= softPWM_count){
    2b4c:	95 81       	ldd	r25, Z+5	; 0x05
    2b4e:	89 17       	cp	r24, r25
    2b50:	c8 f1       	brcs	.+114    	; 0x2bc4 <_Z14softPWM_updatev+0x128>
				switch(softPWM_channel[i].modus){
    2b52:	96 81       	ldd	r25, Z+6	; 0x06
    2b54:	91 30       	cpi	r25, 0x01	; 1
    2b56:	19 f0       	breq	.+6      	; 0x2b5e <_Z14softPWM_updatev+0xc2>
    2b58:	92 30       	cpi	r25, 0x02	; 2
    2b5a:	e1 f0       	breq	.+56     	; 0x2b94 <_Z14softPWM_updatev+0xf8>
    2b5c:	33 c0       	rjmp	.+102    	; 0x2bc4 <_Z14softPWM_updatev+0x128>
					case e_softPWM_off:
						break;
					case e_softPWM_normal:
						*softPWM_channel[i].PORT &= ~(1 << softPWM_channel[i].PIN);
    2b5e:	e9 01       	movw	r28, r18
    2b60:	cc 0f       	add	r28, r28
    2b62:	dd 1f       	adc	r29, r29
    2b64:	cc 0f       	add	r28, r28
    2b66:	dd 1f       	adc	r29, r29
    2b68:	cc 0f       	add	r28, r28
    2b6a:	dd 1f       	adc	r29, r29
    2b6c:	c2 1b       	sub	r28, r18
    2b6e:	d3 0b       	sbc	r29, r19
    2b70:	cb 5c       	subi	r28, 0xCB	; 203
    2b72:	d9 4f       	sbci	r29, 0xF9	; 249
    2b74:	4c 81       	ldd	r20, Y+4	; 0x04
    2b76:	a2 81       	ldd	r26, Z+2	; 0x02
    2b78:	b3 81       	ldd	r27, Z+3	; 0x03
    2b7a:	9c 91       	ld	r25, X
    2b7c:	eb 01       	movw	r28, r22
    2b7e:	02 c0       	rjmp	.+4      	; 0x2b84 <_Z14softPWM_updatev+0xe8>
    2b80:	cc 0f       	add	r28, r28
    2b82:	dd 1f       	adc	r29, r29
    2b84:	4a 95       	dec	r20
    2b86:	e2 f7       	brpl	.-8      	; 0x2b80 <_Z14softPWM_updatev+0xe4>
    2b88:	ae 01       	movw	r20, r28
    2b8a:	40 95       	com	r20
    2b8c:	50 95       	com	r21
    2b8e:	49 23       	and	r20, r25
    2b90:	4c 93       	st	X, r20
						break;
    2b92:	18 c0       	rjmp	.+48     	; 0x2bc4 <_Z14softPWM_updatev+0x128>
					case e_softPWM_inverted:
						*softPWM_channel[i].PORT |= (1 << softPWM_channel[i].PIN);
    2b94:	e9 01       	movw	r28, r18
    2b96:	cc 0f       	add	r28, r28
    2b98:	dd 1f       	adc	r29, r29
    2b9a:	cc 0f       	add	r28, r28
    2b9c:	dd 1f       	adc	r29, r29
    2b9e:	cc 0f       	add	r28, r28
    2ba0:	dd 1f       	adc	r29, r29
    2ba2:	c2 1b       	sub	r28, r18
    2ba4:	d3 0b       	sbc	r29, r19
    2ba6:	cb 5c       	subi	r28, 0xCB	; 203
    2ba8:	d9 4f       	sbci	r29, 0xF9	; 249
    2baa:	4c 81       	ldd	r20, Y+4	; 0x04
    2bac:	a2 81       	ldd	r26, Z+2	; 0x02
    2bae:	b3 81       	ldd	r27, Z+3	; 0x03
    2bb0:	9c 91       	ld	r25, X
    2bb2:	eb 01       	movw	r28, r22
    2bb4:	02 c0       	rjmp	.+4      	; 0x2bba <_Z14softPWM_updatev+0x11e>
    2bb6:	cc 0f       	add	r28, r28
    2bb8:	dd 1f       	adc	r29, r29
    2bba:	4a 95       	dec	r20
    2bbc:	e2 f7       	brpl	.-8      	; 0x2bb6 <_Z14softPWM_updatev+0x11a>
    2bbe:	ae 01       	movw	r20, r28
    2bc0:	49 2b       	or	r20, r25
    2bc2:	4c 93       	st	X, r20
			}
		}
	}
	else
	{
		for(int i = 0; i < PWM_CHANNELS; i++){
    2bc4:	2f 5f       	subi	r18, 0xFF	; 255
    2bc6:	3f 4f       	sbci	r19, 0xFF	; 255
    2bc8:	37 96       	adiw	r30, 0x07	; 7
    2bca:	22 30       	cpi	r18, 0x02	; 2
    2bcc:	31 05       	cpc	r19, r1
    2bce:	09 f0       	breq	.+2      	; 0x2bd2 <_Z14softPWM_updatev+0x136>
    2bd0:	bd cf       	rjmp	.-134    	; 0x2b4c <_Z14softPWM_updatev+0xb0>
					default: break;
				}
			}
		}
	}
}
    2bd2:	df 91       	pop	r29
    2bd4:	cf 91       	pop	r28
    2bd6:	08 95       	ret

00002bd8 <_Z16softPWM_setvalue17e_softPWM_channelh>:

void softPWM_setvalue(e_softPWM_channel channel, uint8_t value){
	softPWM_channel[channel].value = value;
    2bd8:	27 e0       	ldi	r18, 0x07	; 7
    2bda:	82 9f       	mul	r24, r18
    2bdc:	c0 01       	movw	r24, r0
    2bde:	11 24       	eor	r1, r1
    2be0:	fc 01       	movw	r30, r24
    2be2:	eb 5c       	subi	r30, 0xCB	; 203
    2be4:	f9 4f       	sbci	r31, 0xF9	; 249
    2be6:	65 83       	std	Z+5, r22	; 0x05
    2be8:	08 95       	ret

00002bea <_Z21softPWM_assignchannel17e_softPWM_channelPVhS1_h>:
}

void softPWM_assignchannel(e_softPWM_channel channel, volatile uint8_t *DDR, volatile uint8_t *PORT, uint8_t PIN){
	softPWM_channel[channel].DDR = DDR;
    2bea:	37 e0       	ldi	r19, 0x07	; 7
    2bec:	83 9f       	mul	r24, r19
    2bee:	c0 01       	movw	r24, r0
    2bf0:	11 24       	eor	r1, r1
    2bf2:	fc 01       	movw	r30, r24
    2bf4:	eb 5c       	subi	r30, 0xCB	; 203
    2bf6:	f9 4f       	sbci	r31, 0xF9	; 249
    2bf8:	71 83       	std	Z+1, r23	; 0x01
    2bfa:	60 83       	st	Z, r22
	softPWM_channel[channel].PORT = PORT;
    2bfc:	53 83       	std	Z+3, r21	; 0x03
    2bfe:	42 83       	std	Z+2, r20	; 0x02
	softPWM_channel[channel].PIN = PIN;	
    2c00:	24 83       	std	Z+4, r18	; 0x04
    2c02:	08 95       	ret

00002c04 <_Z15softPWM_setmode17e_softPWM_channel14e_softPWM_mode>:
}

void softPWM_setmode(e_softPWM_channel channel, e_softPWM_mode modus){
	softPWM_channel[channel].modus = modus;
    2c04:	27 e0       	ldi	r18, 0x07	; 7
    2c06:	82 9f       	mul	r24, r18
    2c08:	c0 01       	movw	r24, r0
    2c0a:	11 24       	eor	r1, r1
    2c0c:	fc 01       	movw	r30, r24
    2c0e:	eb 5c       	subi	r30, 0xCB	; 203
    2c10:	f9 4f       	sbci	r31, 0xF9	; 249
    2c12:	66 83       	std	Z+6, r22	; 0x06
    2c14:	08 95       	ret

00002c16 <__subsf3>:
    2c16:	50 58       	subi	r21, 0x80	; 128

00002c18 <__addsf3>:
    2c18:	bb 27       	eor	r27, r27
    2c1a:	aa 27       	eor	r26, r26
    2c1c:	0e 94 23 16 	call	0x2c46	; 0x2c46 <__addsf3x>
    2c20:	0c 94 96 17 	jmp	0x2f2c	; 0x2f2c <__fp_round>
    2c24:	0e 94 88 17 	call	0x2f10	; 0x2f10 <__fp_pscA>
    2c28:	38 f0       	brcs	.+14     	; 0x2c38 <__addsf3+0x20>
    2c2a:	0e 94 8f 17 	call	0x2f1e	; 0x2f1e <__fp_pscB>
    2c2e:	20 f0       	brcs	.+8      	; 0x2c38 <__addsf3+0x20>
    2c30:	39 f4       	brne	.+14     	; 0x2c40 <__addsf3+0x28>
    2c32:	9f 3f       	cpi	r25, 0xFF	; 255
    2c34:	19 f4       	brne	.+6      	; 0x2c3c <__addsf3+0x24>
    2c36:	26 f4       	brtc	.+8      	; 0x2c40 <__addsf3+0x28>
    2c38:	0c 94 85 17 	jmp	0x2f0a	; 0x2f0a <__fp_nan>
    2c3c:	0e f4       	brtc	.+2      	; 0x2c40 <__addsf3+0x28>
    2c3e:	e0 95       	com	r30
    2c40:	e7 fb       	bst	r30, 7
    2c42:	0c 94 7f 17 	jmp	0x2efe	; 0x2efe <__fp_inf>

00002c46 <__addsf3x>:
    2c46:	e9 2f       	mov	r30, r25
    2c48:	0e 94 a7 17 	call	0x2f4e	; 0x2f4e <__fp_split3>
    2c4c:	58 f3       	brcs	.-42     	; 0x2c24 <__addsf3+0xc>
    2c4e:	ba 17       	cp	r27, r26
    2c50:	62 07       	cpc	r22, r18
    2c52:	73 07       	cpc	r23, r19
    2c54:	84 07       	cpc	r24, r20
    2c56:	95 07       	cpc	r25, r21
    2c58:	20 f0       	brcs	.+8      	; 0x2c62 <__addsf3x+0x1c>
    2c5a:	79 f4       	brne	.+30     	; 0x2c7a <__addsf3x+0x34>
    2c5c:	a6 f5       	brtc	.+104    	; 0x2cc6 <__addsf3x+0x80>
    2c5e:	0c 94 c9 17 	jmp	0x2f92	; 0x2f92 <__fp_zero>
    2c62:	0e f4       	brtc	.+2      	; 0x2c66 <__addsf3x+0x20>
    2c64:	e0 95       	com	r30
    2c66:	0b 2e       	mov	r0, r27
    2c68:	ba 2f       	mov	r27, r26
    2c6a:	a0 2d       	mov	r26, r0
    2c6c:	0b 01       	movw	r0, r22
    2c6e:	b9 01       	movw	r22, r18
    2c70:	90 01       	movw	r18, r0
    2c72:	0c 01       	movw	r0, r24
    2c74:	ca 01       	movw	r24, r20
    2c76:	a0 01       	movw	r20, r0
    2c78:	11 24       	eor	r1, r1
    2c7a:	ff 27       	eor	r31, r31
    2c7c:	59 1b       	sub	r21, r25
    2c7e:	99 f0       	breq	.+38     	; 0x2ca6 <__addsf3x+0x60>
    2c80:	59 3f       	cpi	r21, 0xF9	; 249
    2c82:	50 f4       	brcc	.+20     	; 0x2c98 <__addsf3x+0x52>
    2c84:	50 3e       	cpi	r21, 0xE0	; 224
    2c86:	68 f1       	brcs	.+90     	; 0x2ce2 <__addsf3x+0x9c>
    2c88:	1a 16       	cp	r1, r26
    2c8a:	f0 40       	sbci	r31, 0x00	; 0
    2c8c:	a2 2f       	mov	r26, r18
    2c8e:	23 2f       	mov	r18, r19
    2c90:	34 2f       	mov	r19, r20
    2c92:	44 27       	eor	r20, r20
    2c94:	58 5f       	subi	r21, 0xF8	; 248
    2c96:	f3 cf       	rjmp	.-26     	; 0x2c7e <__addsf3x+0x38>
    2c98:	46 95       	lsr	r20
    2c9a:	37 95       	ror	r19
    2c9c:	27 95       	ror	r18
    2c9e:	a7 95       	ror	r26
    2ca0:	f0 40       	sbci	r31, 0x00	; 0
    2ca2:	53 95       	inc	r21
    2ca4:	c9 f7       	brne	.-14     	; 0x2c98 <__addsf3x+0x52>
    2ca6:	7e f4       	brtc	.+30     	; 0x2cc6 <__addsf3x+0x80>
    2ca8:	1f 16       	cp	r1, r31
    2caa:	ba 0b       	sbc	r27, r26
    2cac:	62 0b       	sbc	r22, r18
    2cae:	73 0b       	sbc	r23, r19
    2cb0:	84 0b       	sbc	r24, r20
    2cb2:	ba f0       	brmi	.+46     	; 0x2ce2 <__addsf3x+0x9c>
    2cb4:	91 50       	subi	r25, 0x01	; 1
    2cb6:	a1 f0       	breq	.+40     	; 0x2ce0 <__addsf3x+0x9a>
    2cb8:	ff 0f       	add	r31, r31
    2cba:	bb 1f       	adc	r27, r27
    2cbc:	66 1f       	adc	r22, r22
    2cbe:	77 1f       	adc	r23, r23
    2cc0:	88 1f       	adc	r24, r24
    2cc2:	c2 f7       	brpl	.-16     	; 0x2cb4 <__addsf3x+0x6e>
    2cc4:	0e c0       	rjmp	.+28     	; 0x2ce2 <__addsf3x+0x9c>
    2cc6:	ba 0f       	add	r27, r26
    2cc8:	62 1f       	adc	r22, r18
    2cca:	73 1f       	adc	r23, r19
    2ccc:	84 1f       	adc	r24, r20
    2cce:	48 f4       	brcc	.+18     	; 0x2ce2 <__addsf3x+0x9c>
    2cd0:	87 95       	ror	r24
    2cd2:	77 95       	ror	r23
    2cd4:	67 95       	ror	r22
    2cd6:	b7 95       	ror	r27
    2cd8:	f7 95       	ror	r31
    2cda:	9e 3f       	cpi	r25, 0xFE	; 254
    2cdc:	08 f0       	brcs	.+2      	; 0x2ce0 <__addsf3x+0x9a>
    2cde:	b0 cf       	rjmp	.-160    	; 0x2c40 <__addsf3+0x28>
    2ce0:	93 95       	inc	r25
    2ce2:	88 0f       	add	r24, r24
    2ce4:	08 f0       	brcs	.+2      	; 0x2ce8 <__addsf3x+0xa2>
    2ce6:	99 27       	eor	r25, r25
    2ce8:	ee 0f       	add	r30, r30
    2cea:	97 95       	ror	r25
    2cec:	87 95       	ror	r24
    2cee:	08 95       	ret

00002cf0 <__cmpsf2>:
    2cf0:	0e 94 5b 17 	call	0x2eb6	; 0x2eb6 <__fp_cmp>
    2cf4:	08 f4       	brcc	.+2      	; 0x2cf8 <__cmpsf2+0x8>
    2cf6:	81 e0       	ldi	r24, 0x01	; 1
    2cf8:	08 95       	ret

00002cfa <__divsf3>:
    2cfa:	0e 94 91 16 	call	0x2d22	; 0x2d22 <__divsf3x>
    2cfe:	0c 94 96 17 	jmp	0x2f2c	; 0x2f2c <__fp_round>
    2d02:	0e 94 8f 17 	call	0x2f1e	; 0x2f1e <__fp_pscB>
    2d06:	58 f0       	brcs	.+22     	; 0x2d1e <__divsf3+0x24>
    2d08:	0e 94 88 17 	call	0x2f10	; 0x2f10 <__fp_pscA>
    2d0c:	40 f0       	brcs	.+16     	; 0x2d1e <__divsf3+0x24>
    2d0e:	29 f4       	brne	.+10     	; 0x2d1a <__divsf3+0x20>
    2d10:	5f 3f       	cpi	r21, 0xFF	; 255
    2d12:	29 f0       	breq	.+10     	; 0x2d1e <__divsf3+0x24>
    2d14:	0c 94 7f 17 	jmp	0x2efe	; 0x2efe <__fp_inf>
    2d18:	51 11       	cpse	r21, r1
    2d1a:	0c 94 ca 17 	jmp	0x2f94	; 0x2f94 <__fp_szero>
    2d1e:	0c 94 85 17 	jmp	0x2f0a	; 0x2f0a <__fp_nan>

00002d22 <__divsf3x>:
    2d22:	0e 94 a7 17 	call	0x2f4e	; 0x2f4e <__fp_split3>
    2d26:	68 f3       	brcs	.-38     	; 0x2d02 <__divsf3+0x8>

00002d28 <__divsf3_pse>:
    2d28:	99 23       	and	r25, r25
    2d2a:	b1 f3       	breq	.-20     	; 0x2d18 <__divsf3+0x1e>
    2d2c:	55 23       	and	r21, r21
    2d2e:	91 f3       	breq	.-28     	; 0x2d14 <__divsf3+0x1a>
    2d30:	95 1b       	sub	r25, r21
    2d32:	55 0b       	sbc	r21, r21
    2d34:	bb 27       	eor	r27, r27
    2d36:	aa 27       	eor	r26, r26
    2d38:	62 17       	cp	r22, r18
    2d3a:	73 07       	cpc	r23, r19
    2d3c:	84 07       	cpc	r24, r20
    2d3e:	38 f0       	brcs	.+14     	; 0x2d4e <__divsf3_pse+0x26>
    2d40:	9f 5f       	subi	r25, 0xFF	; 255
    2d42:	5f 4f       	sbci	r21, 0xFF	; 255
    2d44:	22 0f       	add	r18, r18
    2d46:	33 1f       	adc	r19, r19
    2d48:	44 1f       	adc	r20, r20
    2d4a:	aa 1f       	adc	r26, r26
    2d4c:	a9 f3       	breq	.-22     	; 0x2d38 <__divsf3_pse+0x10>
    2d4e:	35 d0       	rcall	.+106    	; 0x2dba <__divsf3_pse+0x92>
    2d50:	0e 2e       	mov	r0, r30
    2d52:	3a f0       	brmi	.+14     	; 0x2d62 <__divsf3_pse+0x3a>
    2d54:	e0 e8       	ldi	r30, 0x80	; 128
    2d56:	32 d0       	rcall	.+100    	; 0x2dbc <__divsf3_pse+0x94>
    2d58:	91 50       	subi	r25, 0x01	; 1
    2d5a:	50 40       	sbci	r21, 0x00	; 0
    2d5c:	e6 95       	lsr	r30
    2d5e:	00 1c       	adc	r0, r0
    2d60:	ca f7       	brpl	.-14     	; 0x2d54 <__divsf3_pse+0x2c>
    2d62:	2b d0       	rcall	.+86     	; 0x2dba <__divsf3_pse+0x92>
    2d64:	fe 2f       	mov	r31, r30
    2d66:	29 d0       	rcall	.+82     	; 0x2dba <__divsf3_pse+0x92>
    2d68:	66 0f       	add	r22, r22
    2d6a:	77 1f       	adc	r23, r23
    2d6c:	88 1f       	adc	r24, r24
    2d6e:	bb 1f       	adc	r27, r27
    2d70:	26 17       	cp	r18, r22
    2d72:	37 07       	cpc	r19, r23
    2d74:	48 07       	cpc	r20, r24
    2d76:	ab 07       	cpc	r26, r27
    2d78:	b0 e8       	ldi	r27, 0x80	; 128
    2d7a:	09 f0       	breq	.+2      	; 0x2d7e <__divsf3_pse+0x56>
    2d7c:	bb 0b       	sbc	r27, r27
    2d7e:	80 2d       	mov	r24, r0
    2d80:	bf 01       	movw	r22, r30
    2d82:	ff 27       	eor	r31, r31
    2d84:	93 58       	subi	r25, 0x83	; 131
    2d86:	5f 4f       	sbci	r21, 0xFF	; 255
    2d88:	3a f0       	brmi	.+14     	; 0x2d98 <__divsf3_pse+0x70>
    2d8a:	9e 3f       	cpi	r25, 0xFE	; 254
    2d8c:	51 05       	cpc	r21, r1
    2d8e:	78 f0       	brcs	.+30     	; 0x2dae <__divsf3_pse+0x86>
    2d90:	0c 94 7f 17 	jmp	0x2efe	; 0x2efe <__fp_inf>
    2d94:	0c 94 ca 17 	jmp	0x2f94	; 0x2f94 <__fp_szero>
    2d98:	5f 3f       	cpi	r21, 0xFF	; 255
    2d9a:	e4 f3       	brlt	.-8      	; 0x2d94 <__divsf3_pse+0x6c>
    2d9c:	98 3e       	cpi	r25, 0xE8	; 232
    2d9e:	d4 f3       	brlt	.-12     	; 0x2d94 <__divsf3_pse+0x6c>
    2da0:	86 95       	lsr	r24
    2da2:	77 95       	ror	r23
    2da4:	67 95       	ror	r22
    2da6:	b7 95       	ror	r27
    2da8:	f7 95       	ror	r31
    2daa:	9f 5f       	subi	r25, 0xFF	; 255
    2dac:	c9 f7       	brne	.-14     	; 0x2da0 <__divsf3_pse+0x78>
    2dae:	88 0f       	add	r24, r24
    2db0:	91 1d       	adc	r25, r1
    2db2:	96 95       	lsr	r25
    2db4:	87 95       	ror	r24
    2db6:	97 f9       	bld	r25, 7
    2db8:	08 95       	ret
    2dba:	e1 e0       	ldi	r30, 0x01	; 1
    2dbc:	66 0f       	add	r22, r22
    2dbe:	77 1f       	adc	r23, r23
    2dc0:	88 1f       	adc	r24, r24
    2dc2:	bb 1f       	adc	r27, r27
    2dc4:	62 17       	cp	r22, r18
    2dc6:	73 07       	cpc	r23, r19
    2dc8:	84 07       	cpc	r24, r20
    2dca:	ba 07       	cpc	r27, r26
    2dcc:	20 f0       	brcs	.+8      	; 0x2dd6 <__divsf3_pse+0xae>
    2dce:	62 1b       	sub	r22, r18
    2dd0:	73 0b       	sbc	r23, r19
    2dd2:	84 0b       	sbc	r24, r20
    2dd4:	ba 0b       	sbc	r27, r26
    2dd6:	ee 1f       	adc	r30, r30
    2dd8:	88 f7       	brcc	.-30     	; 0x2dbc <__divsf3_pse+0x94>
    2dda:	e0 95       	com	r30
    2ddc:	08 95       	ret

00002dde <__fixunssfsi>:
    2dde:	0e 94 af 17 	call	0x2f5e	; 0x2f5e <__fp_splitA>
    2de2:	88 f0       	brcs	.+34     	; 0x2e06 <__fixunssfsi+0x28>
    2de4:	9f 57       	subi	r25, 0x7F	; 127
    2de6:	98 f0       	brcs	.+38     	; 0x2e0e <__fixunssfsi+0x30>
    2de8:	b9 2f       	mov	r27, r25
    2dea:	99 27       	eor	r25, r25
    2dec:	b7 51       	subi	r27, 0x17	; 23
    2dee:	b0 f0       	brcs	.+44     	; 0x2e1c <__fixunssfsi+0x3e>
    2df0:	e1 f0       	breq	.+56     	; 0x2e2a <__fixunssfsi+0x4c>
    2df2:	66 0f       	add	r22, r22
    2df4:	77 1f       	adc	r23, r23
    2df6:	88 1f       	adc	r24, r24
    2df8:	99 1f       	adc	r25, r25
    2dfa:	1a f0       	brmi	.+6      	; 0x2e02 <__fixunssfsi+0x24>
    2dfc:	ba 95       	dec	r27
    2dfe:	c9 f7       	brne	.-14     	; 0x2df2 <__fixunssfsi+0x14>
    2e00:	14 c0       	rjmp	.+40     	; 0x2e2a <__fixunssfsi+0x4c>
    2e02:	b1 30       	cpi	r27, 0x01	; 1
    2e04:	91 f0       	breq	.+36     	; 0x2e2a <__fixunssfsi+0x4c>
    2e06:	0e 94 c9 17 	call	0x2f92	; 0x2f92 <__fp_zero>
    2e0a:	b1 e0       	ldi	r27, 0x01	; 1
    2e0c:	08 95       	ret
    2e0e:	0c 94 c9 17 	jmp	0x2f92	; 0x2f92 <__fp_zero>
    2e12:	67 2f       	mov	r22, r23
    2e14:	78 2f       	mov	r23, r24
    2e16:	88 27       	eor	r24, r24
    2e18:	b8 5f       	subi	r27, 0xF8	; 248
    2e1a:	39 f0       	breq	.+14     	; 0x2e2a <__fixunssfsi+0x4c>
    2e1c:	b9 3f       	cpi	r27, 0xF9	; 249
    2e1e:	cc f3       	brlt	.-14     	; 0x2e12 <__fixunssfsi+0x34>
    2e20:	86 95       	lsr	r24
    2e22:	77 95       	ror	r23
    2e24:	67 95       	ror	r22
    2e26:	b3 95       	inc	r27
    2e28:	d9 f7       	brne	.-10     	; 0x2e20 <__fixunssfsi+0x42>
    2e2a:	3e f4       	brtc	.+14     	; 0x2e3a <__fixunssfsi+0x5c>
    2e2c:	90 95       	com	r25
    2e2e:	80 95       	com	r24
    2e30:	70 95       	com	r23
    2e32:	61 95       	neg	r22
    2e34:	7f 4f       	sbci	r23, 0xFF	; 255
    2e36:	8f 4f       	sbci	r24, 0xFF	; 255
    2e38:	9f 4f       	sbci	r25, 0xFF	; 255
    2e3a:	08 95       	ret

00002e3c <__floatunsisf>:
    2e3c:	e8 94       	clt
    2e3e:	09 c0       	rjmp	.+18     	; 0x2e52 <__floatsisf+0x12>

00002e40 <__floatsisf>:
    2e40:	97 fb       	bst	r25, 7
    2e42:	3e f4       	brtc	.+14     	; 0x2e52 <__floatsisf+0x12>
    2e44:	90 95       	com	r25
    2e46:	80 95       	com	r24
    2e48:	70 95       	com	r23
    2e4a:	61 95       	neg	r22
    2e4c:	7f 4f       	sbci	r23, 0xFF	; 255
    2e4e:	8f 4f       	sbci	r24, 0xFF	; 255
    2e50:	9f 4f       	sbci	r25, 0xFF	; 255
    2e52:	99 23       	and	r25, r25
    2e54:	a9 f0       	breq	.+42     	; 0x2e80 <__floatsisf+0x40>
    2e56:	f9 2f       	mov	r31, r25
    2e58:	96 e9       	ldi	r25, 0x96	; 150
    2e5a:	bb 27       	eor	r27, r27
    2e5c:	93 95       	inc	r25
    2e5e:	f6 95       	lsr	r31
    2e60:	87 95       	ror	r24
    2e62:	77 95       	ror	r23
    2e64:	67 95       	ror	r22
    2e66:	b7 95       	ror	r27
    2e68:	f1 11       	cpse	r31, r1
    2e6a:	f8 cf       	rjmp	.-16     	; 0x2e5c <__floatsisf+0x1c>
    2e6c:	fa f4       	brpl	.+62     	; 0x2eac <__floatsisf+0x6c>
    2e6e:	bb 0f       	add	r27, r27
    2e70:	11 f4       	brne	.+4      	; 0x2e76 <__floatsisf+0x36>
    2e72:	60 ff       	sbrs	r22, 0
    2e74:	1b c0       	rjmp	.+54     	; 0x2eac <__floatsisf+0x6c>
    2e76:	6f 5f       	subi	r22, 0xFF	; 255
    2e78:	7f 4f       	sbci	r23, 0xFF	; 255
    2e7a:	8f 4f       	sbci	r24, 0xFF	; 255
    2e7c:	9f 4f       	sbci	r25, 0xFF	; 255
    2e7e:	16 c0       	rjmp	.+44     	; 0x2eac <__floatsisf+0x6c>
    2e80:	88 23       	and	r24, r24
    2e82:	11 f0       	breq	.+4      	; 0x2e88 <__floatsisf+0x48>
    2e84:	96 e9       	ldi	r25, 0x96	; 150
    2e86:	11 c0       	rjmp	.+34     	; 0x2eaa <__floatsisf+0x6a>
    2e88:	77 23       	and	r23, r23
    2e8a:	21 f0       	breq	.+8      	; 0x2e94 <__floatsisf+0x54>
    2e8c:	9e e8       	ldi	r25, 0x8E	; 142
    2e8e:	87 2f       	mov	r24, r23
    2e90:	76 2f       	mov	r23, r22
    2e92:	05 c0       	rjmp	.+10     	; 0x2e9e <__floatsisf+0x5e>
    2e94:	66 23       	and	r22, r22
    2e96:	71 f0       	breq	.+28     	; 0x2eb4 <__floatsisf+0x74>
    2e98:	96 e8       	ldi	r25, 0x86	; 134
    2e9a:	86 2f       	mov	r24, r22
    2e9c:	70 e0       	ldi	r23, 0x00	; 0
    2e9e:	60 e0       	ldi	r22, 0x00	; 0
    2ea0:	2a f0       	brmi	.+10     	; 0x2eac <__floatsisf+0x6c>
    2ea2:	9a 95       	dec	r25
    2ea4:	66 0f       	add	r22, r22
    2ea6:	77 1f       	adc	r23, r23
    2ea8:	88 1f       	adc	r24, r24
    2eaa:	da f7       	brpl	.-10     	; 0x2ea2 <__floatsisf+0x62>
    2eac:	88 0f       	add	r24, r24
    2eae:	96 95       	lsr	r25
    2eb0:	87 95       	ror	r24
    2eb2:	97 f9       	bld	r25, 7
    2eb4:	08 95       	ret

00002eb6 <__fp_cmp>:
    2eb6:	99 0f       	add	r25, r25
    2eb8:	00 08       	sbc	r0, r0
    2eba:	55 0f       	add	r21, r21
    2ebc:	aa 0b       	sbc	r26, r26
    2ebe:	e0 e8       	ldi	r30, 0x80	; 128
    2ec0:	fe ef       	ldi	r31, 0xFE	; 254
    2ec2:	16 16       	cp	r1, r22
    2ec4:	17 06       	cpc	r1, r23
    2ec6:	e8 07       	cpc	r30, r24
    2ec8:	f9 07       	cpc	r31, r25
    2eca:	c0 f0       	brcs	.+48     	; 0x2efc <__fp_cmp+0x46>
    2ecc:	12 16       	cp	r1, r18
    2ece:	13 06       	cpc	r1, r19
    2ed0:	e4 07       	cpc	r30, r20
    2ed2:	f5 07       	cpc	r31, r21
    2ed4:	98 f0       	brcs	.+38     	; 0x2efc <__fp_cmp+0x46>
    2ed6:	62 1b       	sub	r22, r18
    2ed8:	73 0b       	sbc	r23, r19
    2eda:	84 0b       	sbc	r24, r20
    2edc:	95 0b       	sbc	r25, r21
    2ede:	39 f4       	brne	.+14     	; 0x2eee <__fp_cmp+0x38>
    2ee0:	0a 26       	eor	r0, r26
    2ee2:	61 f0       	breq	.+24     	; 0x2efc <__fp_cmp+0x46>
    2ee4:	23 2b       	or	r18, r19
    2ee6:	24 2b       	or	r18, r20
    2ee8:	25 2b       	or	r18, r21
    2eea:	21 f4       	brne	.+8      	; 0x2ef4 <__fp_cmp+0x3e>
    2eec:	08 95       	ret
    2eee:	0a 26       	eor	r0, r26
    2ef0:	09 f4       	brne	.+2      	; 0x2ef4 <__fp_cmp+0x3e>
    2ef2:	a1 40       	sbci	r26, 0x01	; 1
    2ef4:	a6 95       	lsr	r26
    2ef6:	8f ef       	ldi	r24, 0xFF	; 255
    2ef8:	81 1d       	adc	r24, r1
    2efa:	81 1d       	adc	r24, r1
    2efc:	08 95       	ret

00002efe <__fp_inf>:
    2efe:	97 f9       	bld	r25, 7
    2f00:	9f 67       	ori	r25, 0x7F	; 127
    2f02:	80 e8       	ldi	r24, 0x80	; 128
    2f04:	70 e0       	ldi	r23, 0x00	; 0
    2f06:	60 e0       	ldi	r22, 0x00	; 0
    2f08:	08 95       	ret

00002f0a <__fp_nan>:
    2f0a:	9f ef       	ldi	r25, 0xFF	; 255
    2f0c:	80 ec       	ldi	r24, 0xC0	; 192
    2f0e:	08 95       	ret

00002f10 <__fp_pscA>:
    2f10:	00 24       	eor	r0, r0
    2f12:	0a 94       	dec	r0
    2f14:	16 16       	cp	r1, r22
    2f16:	17 06       	cpc	r1, r23
    2f18:	18 06       	cpc	r1, r24
    2f1a:	09 06       	cpc	r0, r25
    2f1c:	08 95       	ret

00002f1e <__fp_pscB>:
    2f1e:	00 24       	eor	r0, r0
    2f20:	0a 94       	dec	r0
    2f22:	12 16       	cp	r1, r18
    2f24:	13 06       	cpc	r1, r19
    2f26:	14 06       	cpc	r1, r20
    2f28:	05 06       	cpc	r0, r21
    2f2a:	08 95       	ret

00002f2c <__fp_round>:
    2f2c:	09 2e       	mov	r0, r25
    2f2e:	03 94       	inc	r0
    2f30:	00 0c       	add	r0, r0
    2f32:	11 f4       	brne	.+4      	; 0x2f38 <__fp_round+0xc>
    2f34:	88 23       	and	r24, r24
    2f36:	52 f0       	brmi	.+20     	; 0x2f4c <__fp_round+0x20>
    2f38:	bb 0f       	add	r27, r27
    2f3a:	40 f4       	brcc	.+16     	; 0x2f4c <__fp_round+0x20>
    2f3c:	bf 2b       	or	r27, r31
    2f3e:	11 f4       	brne	.+4      	; 0x2f44 <__fp_round+0x18>
    2f40:	60 ff       	sbrs	r22, 0
    2f42:	04 c0       	rjmp	.+8      	; 0x2f4c <__fp_round+0x20>
    2f44:	6f 5f       	subi	r22, 0xFF	; 255
    2f46:	7f 4f       	sbci	r23, 0xFF	; 255
    2f48:	8f 4f       	sbci	r24, 0xFF	; 255
    2f4a:	9f 4f       	sbci	r25, 0xFF	; 255
    2f4c:	08 95       	ret

00002f4e <__fp_split3>:
    2f4e:	57 fd       	sbrc	r21, 7
    2f50:	90 58       	subi	r25, 0x80	; 128
    2f52:	44 0f       	add	r20, r20
    2f54:	55 1f       	adc	r21, r21
    2f56:	59 f0       	breq	.+22     	; 0x2f6e <__fp_splitA+0x10>
    2f58:	5f 3f       	cpi	r21, 0xFF	; 255
    2f5a:	71 f0       	breq	.+28     	; 0x2f78 <__fp_splitA+0x1a>
    2f5c:	47 95       	ror	r20

00002f5e <__fp_splitA>:
    2f5e:	88 0f       	add	r24, r24
    2f60:	97 fb       	bst	r25, 7
    2f62:	99 1f       	adc	r25, r25
    2f64:	61 f0       	breq	.+24     	; 0x2f7e <__fp_splitA+0x20>
    2f66:	9f 3f       	cpi	r25, 0xFF	; 255
    2f68:	79 f0       	breq	.+30     	; 0x2f88 <__fp_splitA+0x2a>
    2f6a:	87 95       	ror	r24
    2f6c:	08 95       	ret
    2f6e:	12 16       	cp	r1, r18
    2f70:	13 06       	cpc	r1, r19
    2f72:	14 06       	cpc	r1, r20
    2f74:	55 1f       	adc	r21, r21
    2f76:	f2 cf       	rjmp	.-28     	; 0x2f5c <__fp_split3+0xe>
    2f78:	46 95       	lsr	r20
    2f7a:	f1 df       	rcall	.-30     	; 0x2f5e <__fp_splitA>
    2f7c:	08 c0       	rjmp	.+16     	; 0x2f8e <__fp_splitA+0x30>
    2f7e:	16 16       	cp	r1, r22
    2f80:	17 06       	cpc	r1, r23
    2f82:	18 06       	cpc	r1, r24
    2f84:	99 1f       	adc	r25, r25
    2f86:	f1 cf       	rjmp	.-30     	; 0x2f6a <__fp_splitA+0xc>
    2f88:	86 95       	lsr	r24
    2f8a:	71 05       	cpc	r23, r1
    2f8c:	61 05       	cpc	r22, r1
    2f8e:	08 94       	sec
    2f90:	08 95       	ret

00002f92 <__fp_zero>:
    2f92:	e8 94       	clt

00002f94 <__fp_szero>:
    2f94:	bb 27       	eor	r27, r27
    2f96:	66 27       	eor	r22, r22
    2f98:	77 27       	eor	r23, r23
    2f9a:	cb 01       	movw	r24, r22
    2f9c:	97 f9       	bld	r25, 7
    2f9e:	08 95       	ret

00002fa0 <__gesf2>:
    2fa0:	0e 94 5b 17 	call	0x2eb6	; 0x2eb6 <__fp_cmp>
    2fa4:	08 f4       	brcc	.+2      	; 0x2fa8 <__gesf2+0x8>
    2fa6:	8f ef       	ldi	r24, 0xFF	; 255
    2fa8:	08 95       	ret

00002faa <__mulsf3>:
    2faa:	0e 94 e8 17 	call	0x2fd0	; 0x2fd0 <__mulsf3x>
    2fae:	0c 94 96 17 	jmp	0x2f2c	; 0x2f2c <__fp_round>
    2fb2:	0e 94 88 17 	call	0x2f10	; 0x2f10 <__fp_pscA>
    2fb6:	38 f0       	brcs	.+14     	; 0x2fc6 <__mulsf3+0x1c>
    2fb8:	0e 94 8f 17 	call	0x2f1e	; 0x2f1e <__fp_pscB>
    2fbc:	20 f0       	brcs	.+8      	; 0x2fc6 <__mulsf3+0x1c>
    2fbe:	95 23       	and	r25, r21
    2fc0:	11 f0       	breq	.+4      	; 0x2fc6 <__mulsf3+0x1c>
    2fc2:	0c 94 7f 17 	jmp	0x2efe	; 0x2efe <__fp_inf>
    2fc6:	0c 94 85 17 	jmp	0x2f0a	; 0x2f0a <__fp_nan>
    2fca:	11 24       	eor	r1, r1
    2fcc:	0c 94 ca 17 	jmp	0x2f94	; 0x2f94 <__fp_szero>

00002fd0 <__mulsf3x>:
    2fd0:	0e 94 a7 17 	call	0x2f4e	; 0x2f4e <__fp_split3>
    2fd4:	70 f3       	brcs	.-36     	; 0x2fb2 <__mulsf3+0x8>

00002fd6 <__mulsf3_pse>:
    2fd6:	95 9f       	mul	r25, r21
    2fd8:	c1 f3       	breq	.-16     	; 0x2fca <__mulsf3+0x20>
    2fda:	95 0f       	add	r25, r21
    2fdc:	50 e0       	ldi	r21, 0x00	; 0
    2fde:	55 1f       	adc	r21, r21
    2fe0:	62 9f       	mul	r22, r18
    2fe2:	f0 01       	movw	r30, r0
    2fe4:	72 9f       	mul	r23, r18
    2fe6:	bb 27       	eor	r27, r27
    2fe8:	f0 0d       	add	r31, r0
    2fea:	b1 1d       	adc	r27, r1
    2fec:	63 9f       	mul	r22, r19
    2fee:	aa 27       	eor	r26, r26
    2ff0:	f0 0d       	add	r31, r0
    2ff2:	b1 1d       	adc	r27, r1
    2ff4:	aa 1f       	adc	r26, r26
    2ff6:	64 9f       	mul	r22, r20
    2ff8:	66 27       	eor	r22, r22
    2ffa:	b0 0d       	add	r27, r0
    2ffc:	a1 1d       	adc	r26, r1
    2ffe:	66 1f       	adc	r22, r22
    3000:	82 9f       	mul	r24, r18
    3002:	22 27       	eor	r18, r18
    3004:	b0 0d       	add	r27, r0
    3006:	a1 1d       	adc	r26, r1
    3008:	62 1f       	adc	r22, r18
    300a:	73 9f       	mul	r23, r19
    300c:	b0 0d       	add	r27, r0
    300e:	a1 1d       	adc	r26, r1
    3010:	62 1f       	adc	r22, r18
    3012:	83 9f       	mul	r24, r19
    3014:	a0 0d       	add	r26, r0
    3016:	61 1d       	adc	r22, r1
    3018:	22 1f       	adc	r18, r18
    301a:	74 9f       	mul	r23, r20
    301c:	33 27       	eor	r19, r19
    301e:	a0 0d       	add	r26, r0
    3020:	61 1d       	adc	r22, r1
    3022:	23 1f       	adc	r18, r19
    3024:	84 9f       	mul	r24, r20
    3026:	60 0d       	add	r22, r0
    3028:	21 1d       	adc	r18, r1
    302a:	82 2f       	mov	r24, r18
    302c:	76 2f       	mov	r23, r22
    302e:	6a 2f       	mov	r22, r26
    3030:	11 24       	eor	r1, r1
    3032:	9f 57       	subi	r25, 0x7F	; 127
    3034:	50 40       	sbci	r21, 0x00	; 0
    3036:	9a f0       	brmi	.+38     	; 0x305e <__mulsf3_pse+0x88>
    3038:	f1 f0       	breq	.+60     	; 0x3076 <__mulsf3_pse+0xa0>
    303a:	88 23       	and	r24, r24
    303c:	4a f0       	brmi	.+18     	; 0x3050 <__mulsf3_pse+0x7a>
    303e:	ee 0f       	add	r30, r30
    3040:	ff 1f       	adc	r31, r31
    3042:	bb 1f       	adc	r27, r27
    3044:	66 1f       	adc	r22, r22
    3046:	77 1f       	adc	r23, r23
    3048:	88 1f       	adc	r24, r24
    304a:	91 50       	subi	r25, 0x01	; 1
    304c:	50 40       	sbci	r21, 0x00	; 0
    304e:	a9 f7       	brne	.-22     	; 0x303a <__mulsf3_pse+0x64>
    3050:	9e 3f       	cpi	r25, 0xFE	; 254
    3052:	51 05       	cpc	r21, r1
    3054:	80 f0       	brcs	.+32     	; 0x3076 <__mulsf3_pse+0xa0>
    3056:	0c 94 7f 17 	jmp	0x2efe	; 0x2efe <__fp_inf>
    305a:	0c 94 ca 17 	jmp	0x2f94	; 0x2f94 <__fp_szero>
    305e:	5f 3f       	cpi	r21, 0xFF	; 255
    3060:	e4 f3       	brlt	.-8      	; 0x305a <__mulsf3_pse+0x84>
    3062:	98 3e       	cpi	r25, 0xE8	; 232
    3064:	d4 f3       	brlt	.-12     	; 0x305a <__mulsf3_pse+0x84>
    3066:	86 95       	lsr	r24
    3068:	77 95       	ror	r23
    306a:	67 95       	ror	r22
    306c:	b7 95       	ror	r27
    306e:	f7 95       	ror	r31
    3070:	e7 95       	ror	r30
    3072:	9f 5f       	subi	r25, 0xFF	; 255
    3074:	c1 f7       	brne	.-16     	; 0x3066 <__mulsf3_pse+0x90>
    3076:	fe 2b       	or	r31, r30
    3078:	88 0f       	add	r24, r24
    307a:	91 1d       	adc	r25, r1
    307c:	96 95       	lsr	r25
    307e:	87 95       	ror	r24
    3080:	97 f9       	bld	r25, 7
    3082:	08 95       	ret

00003084 <__udivmodsi4>:
    3084:	a1 e2       	ldi	r26, 0x21	; 33
    3086:	1a 2e       	mov	r1, r26
    3088:	aa 1b       	sub	r26, r26
    308a:	bb 1b       	sub	r27, r27
    308c:	fd 01       	movw	r30, r26
    308e:	0d c0       	rjmp	.+26     	; 0x30aa <__udivmodsi4_ep>

00003090 <__udivmodsi4_loop>:
    3090:	aa 1f       	adc	r26, r26
    3092:	bb 1f       	adc	r27, r27
    3094:	ee 1f       	adc	r30, r30
    3096:	ff 1f       	adc	r31, r31
    3098:	a2 17       	cp	r26, r18
    309a:	b3 07       	cpc	r27, r19
    309c:	e4 07       	cpc	r30, r20
    309e:	f5 07       	cpc	r31, r21
    30a0:	20 f0       	brcs	.+8      	; 0x30aa <__udivmodsi4_ep>
    30a2:	a2 1b       	sub	r26, r18
    30a4:	b3 0b       	sbc	r27, r19
    30a6:	e4 0b       	sbc	r30, r20
    30a8:	f5 0b       	sbc	r31, r21

000030aa <__udivmodsi4_ep>:
    30aa:	66 1f       	adc	r22, r22
    30ac:	77 1f       	adc	r23, r23
    30ae:	88 1f       	adc	r24, r24
    30b0:	99 1f       	adc	r25, r25
    30b2:	1a 94       	dec	r1
    30b4:	69 f7       	brne	.-38     	; 0x3090 <__udivmodsi4_loop>
    30b6:	60 95       	com	r22
    30b8:	70 95       	com	r23
    30ba:	80 95       	com	r24
    30bc:	90 95       	com	r25
    30be:	9b 01       	movw	r18, r22
    30c0:	ac 01       	movw	r20, r24
    30c2:	bd 01       	movw	r22, r26
    30c4:	cf 01       	movw	r24, r30
    30c6:	08 95       	ret

000030c8 <__tablejump2__>:
    30c8:	ee 0f       	add	r30, r30
    30ca:	ff 1f       	adc	r31, r31
    30cc:	05 90       	lpm	r0, Z+
    30ce:	f4 91       	lpm	r31, Z
    30d0:	e0 2d       	mov	r30, r0
    30d2:	09 94       	ijmp

000030d4 <__umulhisi3>:
    30d4:	a2 9f       	mul	r26, r18
    30d6:	b0 01       	movw	r22, r0
    30d8:	b3 9f       	mul	r27, r19
    30da:	c0 01       	movw	r24, r0
    30dc:	a3 9f       	mul	r26, r19
    30de:	70 0d       	add	r23, r0
    30e0:	81 1d       	adc	r24, r1
    30e2:	11 24       	eor	r1, r1
    30e4:	91 1d       	adc	r25, r1
    30e6:	b2 9f       	mul	r27, r18
    30e8:	70 0d       	add	r23, r0
    30ea:	81 1d       	adc	r24, r1
    30ec:	11 24       	eor	r1, r1
    30ee:	91 1d       	adc	r25, r1
    30f0:	08 95       	ret

000030f2 <eeprom_read_word>:
    30f2:	a8 e1       	ldi	r26, 0x18	; 24
    30f4:	b0 e0       	ldi	r27, 0x00	; 0
    30f6:	42 e0       	ldi	r20, 0x02	; 2
    30f8:	50 e0       	ldi	r21, 0x00	; 0
    30fa:	0c 94 86 18 	jmp	0x310c	; 0x310c <eeprom_read_blraw>

000030fe <eeprom_write_word>:
    30fe:	0e 94 94 18 	call	0x3128	; 0x3128 <eeprom_write_byte>
    3102:	27 2f       	mov	r18, r23
    3104:	0c 94 95 18 	jmp	0x312a	; 0x312a <eeprom_write_r18>

00003108 <eeprom_read_block>:
    3108:	dc 01       	movw	r26, r24
    310a:	cb 01       	movw	r24, r22

0000310c <eeprom_read_blraw>:
    310c:	fc 01       	movw	r30, r24
    310e:	e1 99       	sbic	0x1c, 1	; 28
    3110:	fe cf       	rjmp	.-4      	; 0x310e <eeprom_read_blraw+0x2>
    3112:	06 c0       	rjmp	.+12     	; 0x3120 <eeprom_read_blraw+0x14>
    3114:	ff bb       	out	0x1f, r31	; 31
    3116:	ee bb       	out	0x1e, r30	; 30
    3118:	e0 9a       	sbi	0x1c, 0	; 28
    311a:	31 96       	adiw	r30, 0x01	; 1
    311c:	0d b2       	in	r0, 0x1d	; 29
    311e:	0d 92       	st	X+, r0
    3120:	41 50       	subi	r20, 0x01	; 1
    3122:	50 40       	sbci	r21, 0x00	; 0
    3124:	b8 f7       	brcc	.-18     	; 0x3114 <eeprom_read_blraw+0x8>
    3126:	08 95       	ret

00003128 <eeprom_write_byte>:
    3128:	26 2f       	mov	r18, r22

0000312a <eeprom_write_r18>:
    312a:	e1 99       	sbic	0x1c, 1	; 28
    312c:	fe cf       	rjmp	.-4      	; 0x312a <eeprom_write_r18>
    312e:	9f bb       	out	0x1f, r25	; 31
    3130:	8e bb       	out	0x1e, r24	; 30
    3132:	2d bb       	out	0x1d, r18	; 29
    3134:	0f b6       	in	r0, 0x3f	; 63
    3136:	f8 94       	cli
    3138:	e2 9a       	sbi	0x1c, 2	; 28
    313a:	e1 9a       	sbi	0x1c, 1	; 28
    313c:	0f be       	out	0x3f, r0	; 63
    313e:	01 96       	adiw	r24, 0x01	; 1
    3140:	08 95       	ret

00003142 <_exit>:
    3142:	f8 94       	cli

00003144 <__stop_program>:
    3144:	ff cf       	rjmp	.-2      	; 0x3144 <__stop_program>
